# 2026-06-27
#
# The author disclaims copyright to this source code.  In place of
# a legal notice, here is a blessing:
#
#    May you do good and not evil.
#    May you find forgiveness for yourself and forgive others.
#    May you share freely, never taking more than you give.
#
#***********************************************************************
#

source [file join [file dirname [info script]] fts5_common.tcl]
set testprefix fts5corruptB

# If SQLITE_ENABLE_FTS5 is not defined, omit this file.
ifcapable !fts5 {
  finish_test
  return
}
sqlite3_fts5_may_be_corrupt 1

# Bug 2026-06-27T18:47:28Z
# FTS5 Integrity-Check Signed Integer Overflow Bypasses Leaf-Term Bound Check
#
do_test 1.0 {
  sqlite3 db {}
  db deserialize [decode_hexdb {
.open --hexdb
| size 53248 pagesize 4096 filename v3.db
| page 1 offset 0
|      0: 53 51 4c 69 74 65 20 66 6f 72 6d 61 74 20 33 00   SQLite format 3.
|     16: 10 00 01 01 00 40 20 20 00 00 00 05 00 00 00 0d   .....@  ........
|     32: 00 00 00 0b 00 00 00 02 00 00 00 06 00 00 00 04   ................
|     48: 00 00 00 00 00 00 00 00 00 00 00 01 00 00 00 00   ................
|     80: 00 00 00 00 00 00 00 00 00 00 00 00 00 00 00 05   ................
|     96: 00 2e 99 b0 0d 00 00 00 06 0e 10 00 0f cd 0f 7a   ...............z
|    112: 0f 12 0e be 0e 65 0e 10 00 00 00 00 00 00 00 00   .....e..........
|   3600: 53 06 06 17 1d 1d 01 7b 74 61 62 6c 65 74 5f 63   S.......tablet_c
|   3616: 6f 6e 66 69 67 74 5f 63 6f 6e 66 69 67 06 43 52   onfigt_config.CR
|   3632: 45 41 54 45 20 54 41 42 4c 45 20 27 74 5f 63 6f   EATE TABLE 't_co
|   3648: 6e 66 69 67 27 28 6b 20 50 52 49 4d 41 52 59 20   nfig'(k PRIMARY 
|   3664: 4b 45 59 2c 20 76 29 20 57 49 54 48 4f 55 54 20   KEY, v) WITHOUT 
|   3680: 52 4f 57 49 44 57 05 06 17 1f 1f 01 7f 74 61 62   ROWIDW.......tab
|   3696: 6c 65 74 5f 64 6f 63 73 69 7a 65 74 5f 64 6f 63   let_docsizet_doc
|   3712: 73 69 7a 65 05 43 52 45 41 54 45 20 54 41 42 4c   size.CREATE TABL
|   3728: 45 20 27 74 5f 64 6f 63 73 69 7a 65 27 28 69 64   E 't_docsize'(id
|   3744: 20 49 4e 54 45 47 45 52 20 50 52 49 4d 41 52 59    INTEGER PRIMARY
|   3760: 20 4b 45 59 2c 20 73 7a 20 42 4c 4f 42 29 52 04    KEY, sz BLOB)R.
|   3776: 06 17 1f 1f 01 75 74 61 62 6c 65 74 5f 63 6f 6e   .....utablet_con
|   3792: 74 65 6e 74 74 5f 63 6f 6e 74 65 6e 74 04 43 52   tentt_content.CR
|   3808: 45 41 54 45 20 54 41 42 4c 45 20 27 74 5f 63 6f   EATE TABLE 't_co
|   3824: 6e 74 65 6e 74 27 28 69 64 20 49 4e 54 45 47 45   ntent'(id INTEGE
|   3840: 52 20 50 52 49 4d 41 52 59 20 4b 45 59 2c 20 63   R PRIMARY KEY, c
|   3856: 30 29 66 03 07 17 17 17 01 81 2b 74 61 62 6c 65   0)f.......+table
|   3872: 74 5f 69 64 78 74 5f 69 64 78 03 43 52 45 41 54   t_idxt_idx.CREAT
|   3888: 45 20 54 41 42 4c 45 20 27 74 5f 69 64 78 27 28   E TABLE 't_idx'(
|   3904: 73 65 67 69 64 2c 20 74 65 72 6d 2c 20 70 67 6e   segid, term, pgn
|   3920: 6f 2c 20 50 52 49 4d 41 52 59 20 4b 45 59 28 73   o, PRIMARY KEY(s
|   3936: 65 67 69 64 2c 20 74 65 72 6d 29 29 20 57 49 54   egid, term)) WIT
|   3952: 48 4f 55 54 20 52 4f 57 49 44 51 02 06 17 19 19   HOUT ROWIDQ.....
|   3968: 01 7f 74 61 62 6c 65 74 5f 64 61 74 61 74 5f 64   ..tablet_datat_d
|   3984: 61 74 61 02 43 52 45 41 54 45 20 54 41 42 4c 45   ata.CREATE TABLE
|   4000: 20 27 74 5f 64 61 74 61 27 28 69 64 20 49 4e 54    't_data'(id INT
|   4016: 45 47 45 52 20 50 52 49 4d 41 52 59 20 4b 45 59   EGER PRIMARY KEY
|   4032: 2c 20 62 6c 6f 63 6b 20 42 4c 4f 42 29 31 01 06   , block BLOB)1..
|   4048: 17 0f 0f 08 55 74 61 62 6c 65 74 74 43 52 45 41   ....UtablettCREA
|   4064: 54 45 20 56 49 52 54 55 41 4c 20 54 41 42 4c 45   TE VIRTUAL TABLE
|   4080: 20 74 20 55 53 49 4e 47 20 66 74 73 35 28 61 29    t USING fts5(a)
| page 2 offset 4096
|      0: 05 00 00 00 01 0f f6 00 00 00 00 0a 0f f6 0f e2   ................
|     16: 0f e2 00 00 00 00 00 00 00 00 00 00 00 00 00 00   ................
|     32: 00 00 00 08 84 80 80 80 80 02 03 00 16 00 00 00   ................
|     48: 05 02 9f 2e 84 80 80 80 80 01 04 00 be 60 00 00   .............`..
|     64: 0f a9 9f 21 30 63 63 63 63 63 63 63 63 63 63 63   ...!0ccccccccccc
|     80: 63 63 63 63 63 63 63 63 63 63 63 63 63 63 63 63   cccccccccccccccc
|     96: 63 63 63 63 63 63 63 63 63 63 63 63 63 63 63 63   cccccccccccccccc
|    112: 63 63 63 63 63 63 63 63 63 63 63 63 63 63 63 63   cccccccccccccccc
|    128: 63 63 63 63 63 63 63 63 63 63 63 63 63 63 63 63   cccccccccccccccc
|    144: 63 63 63 63 63 63 63 63 63 63 63 63 63 63 63 63   cccccccccccccccc
|    160: 63 63 63 63 63 63 63 63 63 63 63 63 63 63 63 63   cccccccccccccccc
|    176: 63 63 63 63 63 63 63 63 63 63 63 63 63 63 63 63   cccccccccccccccc
|    192: 63 63 63 63 63 63 63 63 63 63 63 63 63 63 63 63   cccccccccccccccc
|    208: 63 63 63 63 63 63 63 63 63 63 63 63 63 63 63 63   cccccccccccccccc
|    224: 63 63 63 63 63 63 63 63 63 63 63 63 63 63 63 63   cccccccccccccccc
|    240: 63 63 63 63 63 63 63 63 63 63 63 63 63 63 63 63   cccccccccccccccc
|    256: 63 63 63 63 63 63 63 63 63 63 63 63 63 63 63 63   cccccccccccccccc
|    272: 63 63 63 63 63 63 63 63 63 63 63 63 63 63 63 63   cccccccccccccccc
|    288: 63 63 63 63 63 63 63 63 63 63 63 63 63 63 63 63   cccccccccccccccc
|    304: 63 63 63 63 63 63 63 63 63 63 63 63 63 63 63 63   cccccccccccccccc
|    320: 63 63 63 63 63 63 63 63 63 63 63 63 63 63 63 63   cccccccccccccccc
|    336: 63 63 63 63 63 63 63 63 63 63 63 63 63 63 63 63   cccccccccccccccc
|    352: 63 63 63 63 63 63 63 63 63 63 63 63 63 63 63 63   cccccccccccccccc
|    368: 63 63 63 63 63 63 63 63 63 63 63 63 63 63 63 63   cccccccccccccccc
|    384: 63 63 63 63 63 63 63 63 63 63 63 63 63 63 63 63   cccccccccccccccc
|    400: 63 63 63 63 63 63 63 63 63 63 63 63 63 63 63 63   cccccccccccccccc
|    416: 63 63 63 63 63 63 63 63 63 63 63 63 63 63 63 63   cccccccccccccccc
|    432: 63 63 63 63 63 63 63 63 63 63 63 63 63 63 63 63   cccccccccccccccc
|    448: 63 63 63 63 63 63 63 63 63 63 63 63 63 63 63 63   cccccccccccccccc
|    464: 63 63 63 63 63 63 63 63 63 63 63 63 63 63 63 63   cccccccccccccccc
|    480: 63 63 63 63 63 63 63 63 63 63 63 63 63 63 63 63   cccccccccccccccc
|    496: 63 63 63 63 63 63 63 63 63 63 63 63 63 63 63 63   cccccccccccccccc
|    512: 63 63 63 63 63 63 63 63 63 63 63 63 63 63 63 63   cccccccccccccccc
|    528: 63 63 63 63 63 63 63 63 63 63 63 63 63 63 63 63   cccccccccccccccc
|    544: 63 63 63 63 63 63 63 63 63 63 63 63 63 63 63 63   cccccccccccccccc
|    560: 63 63 63 63 63 63 63 63 63 63 63 63 63 63 63 63   cccccccccccccccc
|    576: 63 63 63 63 63 63 63 63 63 63 63 63 63 63 63 63   cccccccccccccccc
|    592: 63 63 63 63 63 63 63 63 63 63 63 63 63 63 63 63   cccccccccccccccc
|    608: 63 63 63 63 63 63 63 63 63 63 63 63 63 63 63 63   cccccccccccccccc
|    624: 63 63 63 63 63 63 63 63 63 63 63 63 63 63 63 63   cccccccccccccccc
|    640: 63 63 63 63 63 63 63 63 63 63 63 63 63 63 63 63   cccccccccccccccc
|    656: 63 63 63 63 63 63 63 63 63 63 63 63 63 63 63 63   cccccccccccccccc
|    672: 63 63 63 63 63 63 63 63 63 63 63 63 63 63 63 63   cccccccccccccccc
|    688: 63 63 63 63 63 63 63 63 63 63 63 63 63 63 63 63   cccccccccccccccc
|    704: 63 63 63 63 63 63 63 63 63 63 63 63 63 63 63 63   cccccccccccccccc
|    720: 63 63 63 63 63 63 63 63 63 63 63 63 63 63 63 63   cccccccccccccccc
|    736: 63 63 63 63 63 63 63 63 63 63 63 63 63 63 63 63   cccccccccccccccc
|    752: 63 63 63 63 63 63 63 63 63 63 63 63 63 63 63 63   cccccccccccccccc
|    768: 63 63 63 63 63 63 63 63 63 63 63 63 63 63 63 63   cccccccccccccccc
|    784: 63 63 63 63 63 63 63 63 63 63 63 63 63 63 63 63   cccccccccccccccc
|    800: 63 63 63 63 63 63 63 63 63 63 63 63 63 63 63 63   cccccccccccccccc
|    816: 63 63 63 63 63 63 63 63 63 63 63 63 63 63 63 63   cccccccccccccccc
|    832: 63 63 63 63 63 63 63 63 63 63 63 63 63 63 63 63   cccccccccccccccc
|    848: 63 63 63 63 63 63 63 63 63 63 63 63 63 63 63 63   cccccccccccccccc
|    864: 63 63 63 63 63 63 63 63 63 63 63 63 63 63 63 63   cccccccccccccccc
|    880: 63 63 63 63 63 63 63 63 63 63 63 63 63 63 63 63   cccccccccccccccc
|    896: 63 63 63 63 63 63 63 63 63 63 63 63 63 63 63 63   cccccccccccccccc
|    912: 63 63 63 63 63 63 63 63 63 63 63 63 63 63 63 63   cccccccccccccccc
|    928: 63 63 63 63 63 63 63 63 63 63 63 63 63 63 63 63   cccccccccccccccc
|    944: 63 63 63 63 63 63 63 63 63 63 63 63 63 63 63 63   cccccccccccccccc
|    960: 63 63 63 63 63 63 63 63 63 63 63 63 63 63 63 63   cccccccccccccccc
|    976: 63 63 63 63 63 63 63 63 63 63 63 63 63 63 63 63   cccccccccccccccc
|    992: 63 63 63 63 63 63 63 63 63 63 63 63 63 63 63 63   cccccccccccccccc
|   1008: 63 63 63 63 63 63 63 63 63 63 63 63 63 63 63 63   cccccccccccccccc
|   1024: 63 63 63 63 63 63 63 63 63 63 63 63 63 63 63 63   cccccccccccccccc
|   1040: 63 63 63 63 63 63 63 63 63 63 63 63 63 63 63 63   cccccccccccccccc
|   1056: 63 63 63 63 63 63 63 63 63 63 63 63 63 63 63 63   cccccccccccccccc
|   1072: 63 63 63 63 63 63 63 63 63 63 63 63 63 63 63 63   cccccccccccccccc
|   1088: 63 63 63 63 63 63 63 63 63 63 63 63 63 63 63 63   cccccccccccccccc
|   1104: 63 63 63 63 63 63 63 63 63 63 63 63 63 63 63 63   cccccccccccccccc
|   1120: 63 63 63 63 63 63 63 63 63 63 63 63 63 63 63 63   cccccccccccccccc
|   1136: 63 63 63 63 63 63 63 63 63 63 63 63 63 63 63 63   cccccccccccccccc
|   1152: 63 63 63 63 63 63 63 63 63 63 63 63 63 63 63 63   cccccccccccccccc
|   1168: 63 63 63 63 63 63 63 63 63 63 63 63 63 63 63 63   cccccccccccccccc
|   1184: 63 63 63 63 63 63 63 63 63 63 63 63 63 63 63 63   cccccccccccccccc
|   1200: 63 63 63 63 63 63 63 63 63 63 63 63 63 63 63 63   cccccccccccccccc
|   1216: 63 63 63 63 63 63 63 63 63 63 63 63 63 63 63 63   cccccccccccccccc
|   1232: 63 63 63 63 63 63 63 63 63 63 63 63 63 63 63 63   cccccccccccccccc
|   1248: 63 63 63 63 63 63 63 63 63 63 63 63 63 63 63 63   cccccccccccccccc
|   1264: 63 63 63 63 63 63 63 63 63 63 63 63 63 63 63 63   cccccccccccccccc
|   1280: 63 63 63 63 63 63 63 63 63 63 63 63 63 63 63 63   cccccccccccccccc
|   1296: 63 63 63 63 63 63 63 63 63 63 63 63 63 63 63 63   cccccccccccccccc
|   1312: 63 63 63 63 63 63 63 63 63 63 63 63 63 63 63 63   cccccccccccccccc
|   1328: 63 63 63 63 63 63 63 63 63 63 63 63 63 63 63 63   cccccccccccccccc
|   1344: 63 63 63 63 63 63 63 63 63 63 63 63 63 63 63 63   cccccccccccccccc
|   1360: 63 63 63 63 63 63 63 63 63 63 63 63 63 63 63 63   cccccccccccccccc
|   1376: 63 63 63 63 63 63 63 63 63 63 63 63 63 63 63 63   cccccccccccccccc
|   1392: 63 63 63 63 63 63 63 63 63 63 63 63 63 63 63 63   cccccccccccccccc
|   1408: 63 63 63 63 63 63 63 63 63 63 63 63 63 63 63 63   cccccccccccccccc
|   1424: 63 63 63 63 63 63 63 63 63 63 63 63 63 63 63 63   cccccccccccccccc
|   1440: 63 63 63 63 63 63 63 63 63 63 63 63 63 63 63 63   cccccccccccccccc
|   1456: 63 63 63 63 63 63 63 63 63 63 63 63 63 63 63 63   cccccccccccccccc
|   1472: 63 63 63 63 63 63 63 63 63 63 63 63 63 63 63 63   cccccccccccccccc
|   1488: 63 63 63 63 63 63 63 63 63 63 63 63 63 63 63 63   cccccccccccccccc
|   1504: 63 63 63 63 63 63 63 63 63 63 63 63 63 63 63 63   cccccccccccccccc
|   1520: 63 63 63 63 63 63 63 63 63 63 63 63 63 63 63 63   cccccccccccccccc
|   1536: 63 63 63 63 63 63 63 63 63 63 63 63 63 63 63 63   cccccccccccccccc
|   1552: 63 63 63 63 63 63 63 63 63 63 63 63 63 63 63 63   cccccccccccccccc
|   1568: 63 63 63 63 63 63 63 63 63 63 63 63 63 63 63 63   cccccccccccccccc
|   1584: 63 63 63 63 63 63 63 63 63 63 63 63 63 63 63 63   cccccccccccccccc
|   1600: 63 63 63 63 63 63 63 63 63 63 63 63 63 63 63 63   cccccccccccccccc
|   1616: 63 63 63 63 63 63 63 63 63 63 63 63 63 63 63 63   cccccccccccccccc
|   1632: 63 63 63 63 63 63 63 63 63 63 63 63 63 63 63 63   cccccccccccccccc
|   1648: 63 63 63 63 63 63 63 63 63 63 63 63 63 63 63 63   cccccccccccccccc
|   1664: 63 63 63 63 63 63 63 63 63 63 63 63 63 63 63 63   cccccccccccccccc
|   1680: 63 63 63 63 63 63 63 63 63 63 63 63 63 63 63 63   cccccccccccccccc
|   1696: 63 63 63 63 63 63 63 63 63 63 63 63 63 63 63 63   cccccccccccccccc
|   1712: 63 63 63 63 63 63 63 63 63 63 63 63 63 63 63 63   cccccccccccccccc
|   1728: 63 63 63 63 63 63 63 63 63 63 63 63 63 63 63 63   cccccccccccccccc
|   1744: 63 63 63 63 63 63 63 63 63 63 63 63 63 63 63 63   cccccccccccccccc
|   1760: 63 63 63 63 63 63 63 63 63 63 63 63 63 63 63 63   cccccccccccccccc
|   1776: 63 63 63 63 63 63 63 63 63 63 63 63 63 63 63 63   cccccccccccccccc
|   1792: 63 63 63 63 63 63 63 63 63 63 63 63 63 63 63 63   cccccccccccccccc
|   1808: 63 63 63 63 63 63 63 63 63 63 63 63 63 63 63 63   cccccccccccccccc
|   1824: 63 63 63 63 63 63 63 63 63 63 63 63 63 63 63 63   cccccccccccccccc
|   1840: 63 63 63 63 63 63 63 63 63 63 63 63 63 63 63 63   cccccccccccccccc
|   1856: 63 63 63 63 63 63 63 63 63 63 63 63 63 63 63 63   cccccccccccccccc
|   1872: 63 63 63 63 63 63 63 63 63 63 63 63 63 63 63 63   cccccccccccccccc
|   1888: 63 63 63 63 63 63 63 63 63 63 63 63 63 63 63 63   cccccccccccccccc
|   1904: 63 63 63 63 63 63 63 63 63 63 63 63 63 63 63 63   cccccccccccccccc
|   1920: 63 63 63 63 63 63 63 63 63 63 63 63 63 63 63 63   cccccccccccccccc
|   1936: 63 63 63 63 63 63 63 63 63 63 63 63 63 63 63 63   cccccccccccccccc
|   1952: 63 63 63 63 63 63 63 63 63 63 63 63 63 63 63 63   cccccccccccccccc
|   1968: 63 63 63 63 63 63 63 63 63 63 63 63 63 63 63 63   cccccccccccccccc
|   1984: 63 63 63 63 63 63 63 63 63 63 63 63 63 63 63 63   cccccccccccccccc
|   2000: 63 63 63 63 63 63 63 63 63 63 63 63 63 63 63 63   cccccccccccccccc
|   2016: 63 63 63 63 63 63 63 63 63 63 63 63 63 63 63 63   cccccccccccccccc
|   2032: 63 63 63 63 63 63 63 63 63 63 63 63 63 63 63 63   cccccccccccccccc
|   2048: 63 63 63 63 63 63 63 63 63 63 63 63 63 63 63 63   cccccccccccccccc
|   2064: 63 63 63 63 63 63 63 63 63 63 63 63 63 63 63 63   cccccccccccccccc
|   2080: 63 63 63 63 63 63 63 63 63 63 63 63 63 63 63 63   cccccccccccccccc
|   2096: 63 63 63 63 63 63 63 63 63 63 63 63 63 63 63 63   cccccccccccccccc
|   2112: 63 63 63 63 63 63 63 63 63 63 63 63 63 63 63 63   cccccccccccccccc
|   2128: 63 63 63 63 63 63 63 63 63 63 63 63 63 63 63 63   cccccccccccccccc
|   2144: 63 63 63 63 63 63 63 63 63 63 63 63 63 63 63 63   cccccccccccccccc
|   2160: 63 63 63 63 63 63 63 63 63 63 63 63 63 63 63 63   cccccccccccccccc
|   2176: 63 63 63 63 63 63 63 63 63 63 63 63 63 63 63 63   cccccccccccccccc
|   2192: 63 63 63 63 63 63 63 63 63 63 63 63 63 63 63 63   cccccccccccccccc
|   2208: 63 63 63 63 63 63 63 63 63 63 63 63 63 63 63 63   cccccccccccccccc
|   2224: 63 63 63 63 63 63 63 63 63 63 63 63 63 63 63 63   cccccccccccccccc
|   2240: 63 63 63 63 63 63 63 63 63 63 63 63 63 63 63 63   cccccccccccccccc
|   2256: 63 63 63 63 63 63 63 63 63 63 63 63 63 63 63 63   cccccccccccccccc
|   2272: 63 63 63 63 63 63 63 63 63 63 63 63 63 63 63 63   cccccccccccccccc
|   2288: 63 63 63 63 63 63 63 63 63 63 63 63 63 63 63 63   cccccccccccccccc
|   2304: 63 63 63 63 63 63 63 63 63 63 63 63 63 63 63 63   cccccccccccccccc
|   2320: 63 63 63 63 63 63 63 63 63 63 63 63 63 63 63 63   cccccccccccccccc
|   2336: 63 63 63 63 63 63 63 63 63 63 63 63 63 63 63 63   cccccccccccccccc
|   2352: 63 63 63 63 63 63 63 63 63 63 63 63 63 63 63 63   cccccccccccccccc
|   2368: 63 63 63 63 63 63 63 63 63 63 63 63 63 63 63 63   cccccccccccccccc
|   2384: 63 63 63 63 63 63 63 63 63 63 63 63 63 63 63 63   cccccccccccccccc
|   2400: 63 63 63 63 63 63 63 63 63 63 63 63 63 63 63 63   cccccccccccccccc
|   2416: 63 63 63 63 63 63 63 63 63 63 63 63 63 63 63 63   cccccccccccccccc
|   2432: 63 63 63 63 63 63 63 63 63 63 63 63 63 63 63 63   cccccccccccccccc
|   2448: 63 63 63 63 63 63 63 63 63 63 63 63 63 63 63 63   cccccccccccccccc
|   2464: 63 63 63 63 63 63 63 63 63 63 63 63 63 63 63 63   cccccccccccccccc
|   2480: 63 63 63 63 63 63 63 63 63 63 63 63 63 63 63 63   cccccccccccccccc
|   2496: 63 63 63 63 63 63 63 63 63 63 63 63 63 63 63 63   cccccccccccccccc
|   2512: 63 63 63 63 63 63 63 63 63 63 63 63 63 63 63 63   cccccccccccccccc
|   2528: 63 63 63 63 63 63 63 63 63 63 63 63 63 63 63 63   cccccccccccccccc
|   2544: 63 63 63 63 63 63 63 63 63 63 63 63 63 63 63 63   cccccccccccccccc
|   2560: 63 63 63 63 63 63 63 63 63 63 63 63 63 63 63 63   cccccccccccccccc
|   2576: 63 63 63 63 63 63 63 63 63 63 63 63 63 63 63 63   cccccccccccccccc
|   2592: 63 63 63 63 63 63 63 63 63 63 63 63 63 63 63 63   cccccccccccccccc
|   2608: 63 63 63 63 63 63 63 63 63 63 63 63 63 63 63 63   cccccccccccccccc
|   2624: 63 63 63 63 63 63 63 63 63 63 63 63 63 63 63 63   cccccccccccccccc
|   2640: 63 63 63 63 63 63 63 63 63 63 63 63 63 63 63 63   cccccccccccccccc
|   2656: 63 63 63 63 63 63 63 63 63 63 63 63 63 63 63 63   cccccccccccccccc
|   2672: 63 63 63 63 63 63 63 63 63 63 63 63 63 63 63 63   cccccccccccccccc
|   2688: 63 63 63 63 63 63 63 63 63 63 63 63 63 63 63 63   cccccccccccccccc
|   2704: 63 63 63 63 63 63 63 63 63 63 63 63 63 63 63 63   cccccccccccccccc
|   2720: 63 63 63 63 63 63 63 63 63 63 63 63 63 63 63 63   cccccccccccccccc
|   2736: 63 63 63 63 63 63 63 63 63 63 63 63 63 63 63 63   cccccccccccccccc
|   2752: 63 63 63 63 63 63 63 63 63 63 63 63 63 63 63 63   cccccccccccccccc
|   2768: 63 63 63 63 63 63 63 63 63 63 63 63 63 63 63 63   cccccccccccccccc
|   2784: 63 63 63 63 63 63 63 63 63 63 63 63 63 63 63 63   cccccccccccccccc
|   2800: 63 63 63 63 63 63 63 63 63 63 63 63 63 63 63 63   cccccccccccccccc
|   2816: 63 63 63 63 63 63 63 63 63 63 63 63 63 63 63 63   cccccccccccccccc
|   2832: 63 63 63 63 63 63 63 63 63 63 63 63 63 63 63 63   cccccccccccccccc
|   2848: 63 63 63 63 63 63 63 63 63 63 63 63 63 63 63 63   cccccccccccccccc
|   2864: 63 63 63 63 63 63 63 63 63 63 63 63 63 63 63 63   cccccccccccccccc
|   2880: 63 63 63 63 63 63 63 63 63 63 63 63 63 63 63 63   cccccccccccccccc
|   2896: 63 63 63 63 63 63 63 63 63 63 63 63 63 63 63 63   cccccccccccccccc
|   2912: 63 63 63 63 63 63 63 63 63 63 63 63 63 63 63 63   cccccccccccccccc
|   2928: 63 63 63 63 63 63 63 63 63 63 63 63 63 63 63 63   cccccccccccccccc
|   2944: 63 63 63 63 63 63 63 63 63 63 63 63 63 63 63 63   cccccccccccccccc
|   2960: 63 63 63 63 63 63 63 63 63 63 63 63 63 63 63 63   cccccccccccccccc
|   2976: 63 63 63 63 63 63 63 63 63 63 63 63 63 63 63 63   cccccccccccccccc
|   2992: 63 63 63 63 63 63 63 63 63 63 63 63 63 63 63 63   cccccccccccccccc
|   3008: 63 63 63 63 63 63 63 63 63 63 63 63 63 63 63 63   cccccccccccccccc
|   3024: 63 63 63 63 63 63 63 63 63 63 63 63 63 63 63 63   cccccccccccccccc
|   3040: 63 63 63 63 63 63 63 63 63 63 63 63 63 63 63 63   cccccccccccccccc
|   3056: 63 63 63 63 63 63 63 63 63 63 63 63 63 63 63 63   cccccccccccccccc
|   3072: 63 63 63 63 63 63 63 63 63 63 63 63 63 63 63 63   cccccccccccccccc
|   3088: 63 63 63 63 63 63 63 63 63 63 63 63 63 63 63 63   cccccccccccccccc
|   3104: 63 63 63 63 63 63 63 63 63 63 63 63 63 63 63 63   cccccccccccccccc
|   3120: 63 63 63 63 63 63 63 63 63 63 63 63 63 63 63 63   cccccccccccccccc
|   3136: 63 63 63 63 63 63 63 63 63 63 63 63 63 63 63 63   cccccccccccccccc
|   3152: 63 63 63 63 63 63 63 63 63 63 63 63 63 63 63 63   cccccccccccccccc
|   3168: 63 63 63 63 63 63 63 63 63 63 63 63 63 63 63 63   cccccccccccccccc
|   3184: 63 63 63 63 63 63 63 63 63 63 63 63 63 63 63 63   cccccccccccccccc
|   3200: 63 63 63 63 63 63 63 63 63 63 63 63 63 63 63 63   cccccccccccccccc
|   3216: 63 63 63 63 63 63 63 63 63 63 63 63 63 63 63 63   cccccccccccccccc
|   3232: 63 63 63 63 63 63 63 63 63 63 63 63 63 63 63 63   cccccccccccccccc
|   3248: 63 63 63 63 63 63 63 63 63 63 63 63 63 63 63 63   cccccccccccccccc
|   3264: 63 63 63 63 63 63 63 63 63 63 63 63 63 63 63 63   cccccccccccccccc
|   3280: 63 63 63 63 63 63 63 63 63 63 63 63 63 63 63 63   cccccccccccccccc
|   3296: 63 63 63 63 63 63 63 63 63 63 63 63 63 63 63 63   cccccccccccccccc
|   3312: 63 63 63 63 63 63 63 63 63 63 63 63 63 63 63 63   cccccccccccccccc
|   3328: 63 63 63 63 63 63 63 63 63 63 63 63 63 63 63 63   cccccccccccccccc
|   3344: 63 63 63 63 63 63 63 63 63 63 63 63 63 63 63 63   cccccccccccccccc
|   3360: 63 63 63 63 63 63 63 63 63 63 63 63 63 63 63 63   cccccccccccccccc
|   3376: 63 63 63 63 63 63 63 63 63 63 63 63 63 63 63 63   cccccccccccccccc
|   3392: 63 63 63 63 63 63 63 63 63 63 63 63 63 63 63 63   cccccccccccccccc
|   3408: 63 63 63 63 63 63 63 63 63 63 63 63 63 63 63 63   cccccccccccccccc
|   3424: 63 63 63 63 63 63 63 63 63 63 63 63 63 63 63 63   cccccccccccccccc
|   3440: 63 63 63 63 63 63 63 63 63 63 63 63 63 63 63 63   cccccccccccccccc
|   3456: 63 63 63 63 63 63 63 63 63 63 63 63 63 63 63 63   cccccccccccccccc
|   3472: 63 63 63 63 63 63 63 63 63 63 63 63 63 63 63 63   cccccccccccccccc
|   3488: 63 63 63 63 63 63 63 63 63 63 63 63 63 63 63 63   cccccccccccccccc
|   3504: 63 63 63 63 63 63 63 63 63 63 63 63 63 63 63 63   cccccccccccccccc
|   3520: 63 63 63 63 63 63 63 63 63 63 63 63 63 63 63 63   cccccccccccccccc
|   3536: 63 63 63 63 63 63 63 63 63 63 63 63 63 63 63 63   cccccccccccccccc
|   3552: 63 63 63 63 63 63 63 63 63 63 63 63 63 63 63 63   cccccccccccccccc
|   3568: 63 63 63 63 63 63 63 63 63 63 63 63 63 63 63 63   cccccccccccccccc
|   3584: 63 63 63 63 63 63 63 63 63 63 63 63 63 63 63 63   cccccccccccccccc
|   3600: 63 63 63 63 63 63 63 63 63 63 63 63 63 63 63 63   cccccccccccccccc
|   3616: 63 63 63 63 63 63 63 63 63 63 63 63 63 63 63 63   cccccccccccccccc
|   3632: 63 63 63 63 63 63 63 63 63 63 63 63 63 63 63 63   cccccccccccccccc
|   3648: 63 63 63 63 63 63 63 63 63 63 63 63 63 63 63 63   cccccccccccccccc
|   3664: 63 63 63 63 63 63 63 63 63 63 63 63 63 63 63 63   cccccccccccccccc
|   3680: 63 63 63 63 63 63 63 63 63 63 63 63 63 63 63 63   cccccccccccccccc
|   3696: 63 63 63 63 63 63 63 63 63 63 63 63 63 63 63 63   cccccccccccccccc
|   3712: 63 63 63 63 63 63 63 63 63 63 63 63 63 63 63 63   cccccccccccccccc
|   3728: 63 63 63 63 63 63 63 63 63 63 63 63 63 63 63 63   cccccccccccccccc
|   3744: 63 63 63 63 63 63 63 63 63 63 63 63 63 63 63 63   cccccccccccccccc
|   3760: 63 63 63 63 63 63 63 63 63 63 63 63 63 63 63 63   cccccccccccccccc
|   3776: 63 63 63 63 63 63 63 63 63 63 63 63 63 63 63 63   cccccccccccccccc
|   3792: 63 63 63 63 63 63 63 63 63 63 63 63 63 63 63 63   cccccccccccccccc
|   3808: 63 63 63 63 63 63 63 63 63 63 63 63 63 63 63 63   cccccccccccccccc
|   3824: 63 63 63 63 63 63 63 63 63 63 63 63 63 63 63 63   cccccccccccccccc
|   3840: 63 63 63 63 63 63 63 63 63 63 63 63 63 63 63 63   cccccccccccccccc
|   3856: 63 63 63 63 63 63 63 63 63 63 63 63 63 63 63 63   cccccccccccccccc
|   3872: 63 63 63 63 63 63 63 63 63 63 63 63 63 63 63 63   cccccccccccccccc
|   3888: 63 63 63 63 63 63 63 63 63 63 63 63 63 63 63 63   cccccccccccccccc
|   3904: 63 63 63 63 63 63 63 63 63 63 63 63 63 63 63 63   cccccccccccccccc
|   3920: 63 63 63 63 63 63 63 63 63 63 63 63 63 63 63 63   cccccccccccccccc
|   3936: 63 63 63 63 63 63 63 63 63 63 63 63 63 63 63 63   cccccccccccccccc
|   3952: 63 63 63 63 63 63 63 63 63 63 63 63 63 63 63 63   cccccccccccccccc
|   3968: 63 63 63 63 63 63 63 63 63 63 63 63 63 63 63 63   cccccccccccccccc
|   3984: 63 63 63 63 63 63 63 63 63 63 63 63 63 63 63 63   cccccccccccccccc
|   4000: 63 63 63 63 63 63 63 63 63 63 63 63 63 63 63 63   cccccccccccccccc
|   4016: 63 63 63 63 63 63 63 63 63 63 63 63 63 63 63 63   cccccccccccccccc
|   4032: 63 63 63 63 63 63 63 63 63 63 63 63 63 63 63 63   cccccccccccccccc
|   4048: 63 63 63 63 63 63 63 63 63 63 63 63 63 63 63 63   cccccccccccccccc
|   4064: 63 63 00 00 00 0a 8c 80 80 80 80 02 00 00 00 0a   cc..............
|   4080: 88 80 80 80 80 02 00 00 00 09 8c 80 80 80 80 01   ................
| page 3 offset 8192
|      0: 0a 0f f3 00 02 0d fd 00 0f ec 0d fd 0d fd 0d fd   ................
|   3568: 00 00 00 00 00 00 00 00 00 00 00 00 00 9f 29 05   ..............).
|   3584: 01 be 50 01 03 30 63 63 63 63 63 63 63 63 63 63   ..P..0cccccccccc
|   3600: 63 63 63 63 63 63 63 63 63 63 63 63 63 63 63 63   cccccccccccccccc
|   3616: 63 63 63 63 63 63 63 63 63 63 63 63 63 63 63 63   cccccccccccccccc
|   3632: 63 63 63 63 63 63 63 63 63 63 63 63 63 63 63 63   cccccccccccccccc
|   3648: 63 63 63 63 63 63 63 63 63 63 63 63 63 63 63 63   cccccccccccccccc
|   3664: 63 63 63 63 63 63 63 63 63 63 63 63 63 63 63 63   cccccccccccccccc
|   3680: 63 63 63 63 63 63 63 63 63 63 63 63 63 63 63 63   cccccccccccccccc
|   3696: 63 63 63 63 63 63 63 63 63 63 63 63 63 63 63 63   cccccccccccccccc
|   3712: 63 63 63 63 63 63 63 63 63 63 63 63 63 63 63 63   cccccccccccccccc
|   3728: 63 63 63 63 63 63 63 63 63 63 63 63 63 63 63 63   cccccccccccccccc
|   3744: 63 63 63 63 63 63 63 63 63 63 63 63 63 63 63 63   cccccccccccccccc
|   3760: 63 63 63 63 63 63 63 63 63 63 63 63 63 63 63 63   cccccccccccccccc
|   3776: 63 63 63 63 63 63 63 63 63 63 63 63 63 63 63 63   cccccccccccccccc
|   3792: 63 63 63 63 63 63 63 63 63 63 63 63 63 63 63 63   cccccccccccccccc
|   3808: 63 63 63 63 63 63 63 63 63 63 63 63 63 63 63 63   cccccccccccccccc
|   3824: 63 63 63 63 63 63 63 63 63 63 63 63 63 63 63 63   cccccccccccccccc
|   3840: 63 63 63 63 63 63 63 63 63 63 63 63 63 63 63 63   cccccccccccccccc
|   3856: 63 63 63 63 63 63 63 63 63 63 63 63 63 63 63 63   cccccccccccccccc
|   3872: 63 63 63 63 63 63 63 63 63 63 63 63 63 63 63 63   cccccccccccccccc
|   3888: 63 63 63 63 63 63 63 63 63 63 63 63 63 63 63 63   cccccccccccccccc
|   3904: 63 63 63 63 63 63 63 63 63 63 63 63 63 63 63 63   cccccccccccccccc
|   3920: 63 63 63 63 63 63 63 63 63 63 63 63 63 63 63 63   cccccccccccccccc
|   3936: 63 63 63 63 63 63 63 63 63 63 63 63 63 63 63 63   cccccccccccccccc
|   3952: 63 63 63 63 63 63 63 63 63 63 63 63 63 63 63 63   cccccccccccccccc
|   3968: 63 63 63 63 63 63 63 63 63 63 63 63 63 63 63 63   cccccccccccccccc
|   3984: 63 63 63 63 63 63 63 63 63 63 63 63 63 63 63 63   cccccccccccccccc
|   4000: 63 63 63 63 63 63 63 63 63 63 63 63 63 63 63 63   cccccccccccccccc
|   4016: 63 63 63 63 63 63 63 63 63 63 63 63 63 63 63 63   cccccccccccccccc
|   4032: 63 63 63 63 63 63 63 63 63 63 63 63 63 63 63 63   cccccccccccccccc
|   4048: 63 63 63 63 63 63 63 63 63 63 63 63 63 63 63 63   cccccccccccccccc
|   4064: 63 63 63 63 63 63 63 63 00 00 00 0d 06 04 01 0c   cccccccc........
|   4080: 01 03 02 00 00 00 0d 01 02 02 00 00 00 06 01 02   ................
| page 4 offset 12288
|      0: 05 00 00 00 01 0f fb 00 00 00 00 08 0f fb 00 00   ................
|     80: 00 00 00 00 00 00 00 00 00 9f 24 01 04 00 be 4d   ..........$....M
|     96: 63 63 63 63 63 63 63 63 63 63 63 63 63 63 63 63   cccccccccccccccc
|    112: 63 63 63 63 63 63 63 63 63 63 63 63 63 63 63 63   cccccccccccccccc
|    128: 63 63 63 63 63 63 63 63 63 63 63 63 63 63 63 63   cccccccccccccccc
|    144: 63 63 63 63 63 63 63 63 63 63 63 63 63 63 63 63   cccccccccccccccc
|    160: 63 63 63 63 63 63 63 63 63 63 63 63 63 63 63 63   cccccccccccccccc
|    176: 63 63 63 63 63 63 63 63 63 63 63 63 63 63 63 63   cccccccccccccccc
|    192: 63 63 63 63 63 63 63 63 63 63 63 63 63 63 63 63   cccccccccccccccc
|    208: 63 63 63 63 63 63 63 63 63 63 63 63 63 63 63 63   cccccccccccccccc
|    224: 63 63 63 63 63 63 63 63 63 63 63 63 63 63 63 63   cccccccccccccccc
|    240: 63 63 63 63 63 63 63 63 63 63 63 63 63 63 63 63   cccccccccccccccc
|    256: 63 63 63 63 63 63 63 63 63 63 63 63 63 63 63 63   cccccccccccccccc
|    272: 63 63 63 63 63 63 63 63 63 63 63 63 63 63 63 63   cccccccccccccccc
|    288: 63 63 63 63 63 63 63 63 63 63 63 63 63 63 63 63   cccccccccccccccc
|    304: 63 63 63 63 63 63 63 63 63 63 63 63 63 63 63 63   cccccccccccccccc
|    320: 63 63 63 63 63 63 63 63 63 63 63 63 63 63 63 63   cccccccccccccccc
|    336: 63 63 63 63 63 63 63 63 63 63 63 63 63 63 63 63   cccccccccccccccc
|    352: 63 63 63 63 63 63 63 63 63 63 63 63 63 63 63 63   cccccccccccccccc
|    368: 63 63 63 63 63 63 63 63 63 63 63 63 63 63 63 63   cccccccccccccccc
|    384: 63 63 63 63 63 63 63 63 63 63 63 63 63 63 63 63   cccccccccccccccc
|    400: 63 63 63 63 63 63 63 63 63 63 63 63 63 63 63 63   cccccccccccccccc
|    416: 63 63 63 63 63 63 63 63 63 63 63 63 63 63 63 63   cccccccccccccccc
|    432: 63 63 63 63 63 63 63 63 63 63 63 63 63 63 63 63   cccccccccccccccc
|    448: 63 63 63 63 63 63 63 63 63 63 63 63 63 63 63 63   cccccccccccccccc
|    464: 63 63 63 63 63 63 63 63 63 63 63 63 63 63 63 63   cccccccccccccccc
|    480: 63 63 63 63 63 63 63 63 63 63 63 63 63 63 63 63   cccccccccccccccc
|    496: 63 63 63 63 63 63 63 63 63 63 63 63 63 63 63 63   cccccccccccccccc
|    512: 63 63 63 63 63 63 63 63 63 63 63 63 63 63 63 63   cccccccccccccccc
|    528: 63 63 63 63 63 63 63 63 63 63 63 63 63 63 63 63   cccccccccccccccc
|    544: 63 63 63 63 63 63 63 63 63 63 63 63 63 63 63 63   cccccccccccccccc
|    560: 63 63 63 63 63 63 63 63 63 63 63 63 63 63 63 63   cccccccccccccccc
|    576: 63 63 63 63 63 63 63 63 63 63 63 63 63 63 63 63   cccccccccccccccc
|    592: 63 63 63 63 63 63 63 63 63 63 63 63 63 63 63 63   cccccccccccccccc
|    608: 63 63 63 63 63 63 63 63 63 63 63 63 63 63 63 63   cccccccccccccccc
|    624: 63 63 63 63 63 63 63 63 63 63 63 63 63 63 63 63   cccccccccccccccc
|    640: 63 63 63 63 63 63 63 63 63 63 63 63 63 63 63 63   cccccccccccccccc
|    656: 63 63 63 63 63 63 63 63 63 63 63 63 63 63 63 63   cccccccccccccccc
|    672: 63 63 63 63 63 63 63 63 63 63 63 63 63 63 63 63   cccccccccccccccc
|    688: 63 63 63 63 63 63 63 63 63 63 63 63 63 63 63 63   cccccccccccccccc
|    704: 63 63 63 63 63 63 63 63 63 63 63 63 63 63 63 63   cccccccccccccccc
|    720: 63 63 63 63 63 63 63 63 63 63 63 63 63 63 63 63   cccccccccccccccc
|    736: 63 63 63 63 63 63 63 63 63 63 63 63 63 63 63 63   cccccccccccccccc
|    752: 63 63 63 63 63 63 63 63 63 63 63 63 63 63 63 63   cccccccccccccccc
|    768: 63 63 63 63 63 63 63 63 63 63 63 63 63 63 63 63   cccccccccccccccc
|    784: 63 63 63 63 63 63 63 63 63 63 63 63 63 63 63 63   cccccccccccccccc
|    800: 63 63 63 63 63 63 63 63 63 63 63 63 63 63 63 63   cccccccccccccccc
|    816: 63 63 63 63 63 63 63 63 63 63 63 63 63 63 63 63   cccccccccccccccc
|    832: 63 63 63 63 63 63 63 63 63 63 63 63 63 63 63 63   cccccccccccccccc
|    848: 63 63 63 63 63 63 63 63 63 63 63 63 63 63 63 63   cccccccccccccccc
|    864: 63 63 63 63 63 63 63 63 63 63 63 63 63 63 63 63   cccccccccccccccc
|    880: 63 63 63 63 63 63 63 63 63 63 63 63 63 63 63 63   cccccccccccccccc
|    896: 63 63 63 63 63 63 63 63 63 63 63 63 63 63 63 63   cccccccccccccccc
|    912: 63 63 63 63 63 63 63 63 63 63 63 63 63 63 63 63   cccccccccccccccc
|    928: 63 63 63 63 63 63 63 63 63 63 63 63 63 63 63 63   cccccccccccccccc
|    944: 63 63 63 63 63 63 63 63 63 63 63 63 63 63 63 63   cccccccccccccccc
|    960: 63 63 63 63 63 63 63 63 63 63 63 63 63 63 63 63   cccccccccccccccc
|    976: 63 63 63 63 63 63 63 63 63 63 63 63 63 63 63 63   cccccccccccccccc
|    992: 63 63 63 63 63 63 63 63 63 63 63 63 63 63 63 63   cccccccccccccccc
|   1008: 63 63 63 63 63 63 63 63 63 63 63 63 63 63 63 63   cccccccccccccccc
|   1024: 63 63 63 63 63 63 63 63 63 63 63 63 63 63 63 63   cccccccccccccccc
|   1040: 63 63 63 63 63 63 63 63 63 63 63 63 63 63 63 63   cccccccccccccccc
|   1056: 63 63 63 63 63 63 63 63 63 63 63 63 63 63 63 63   cccccccccccccccc
|   1072: 63 63 63 63 63 63 63 63 63 63 63 63 63 63 63 63   cccccccccccccccc
|   1088: 63 63 63 63 63 63 63 63 63 63 63 63 63 63 63 63   cccccccccccccccc
|   1104: 63 63 63 63 63 63 63 63 63 63 63 63 63 63 63 63   cccccccccccccccc
|   1120: 63 63 63 63 63 63 63 63 63 63 63 63 63 63 63 63   cccccccccccccccc
|   1136: 63 63 63 63 63 63 63 63 63 63 63 63 63 63 63 63   cccccccccccccccc
|   1152: 63 63 63 63 63 63 63 63 63 63 63 63 63 63 63 63   cccccccccccccccc
|   1168: 63 63 63 63 63 63 63 63 63 63 63 63 63 63 63 63   cccccccccccccccc
|   1184: 63 63 63 63 63 63 63 63 63 63 63 63 63 63 63 63   cccccccccccccccc
|   1200: 63 63 63 63 63 63 63 63 63 63 63 63 63 63 63 63   cccccccccccccccc
|   1216: 63 63 63 63 63 63 63 63 63 63 63 63 63 63 63 63   cccccccccccccccc
|   1232: 63 63 63 63 63 63 63 63 63 63 63 63 63 63 63 63   cccccccccccccccc
|   1248: 63 63 63 63 63 63 63 63 63 63 63 63 63 63 63 63   cccccccccccccccc
|   1264: 63 63 63 63 63 63 63 63 63 63 63 63 63 63 63 63   cccccccccccccccc
|   1280: 63 63 63 63 63 63 63 63 63 63 63 63 63 63 63 63   cccccccccccccccc
|   1296: 63 63 63 63 63 63 63 63 63 63 63 63 63 63 63 63   cccccccccccccccc
|   1312: 63 63 63 63 63 63 63 63 63 63 63 63 63 63 63 63   cccccccccccccccc
|   1328: 63 63 63 63 63 63 63 63 63 63 63 63 63 63 63 63   cccccccccccccccc
|   1344: 63 63 63 63 63 63 63 63 63 63 63 63 63 63 63 63   cccccccccccccccc
|   1360: 63 63 63 63 63 63 63 63 63 63 63 63 63 63 63 63   cccccccccccccccc
|   1376: 63 63 63 63 63 63 63 63 63 63 63 63 63 63 63 63   cccccccccccccccc
|   1392: 63 63 63 63 63 63 63 63 63 63 63 63 63 63 63 63   cccccccccccccccc
|   1408: 63 63 63 63 63 63 63 63 63 63 63 63 63 63 63 63   cccccccccccccccc
|   1424: 63 63 63 63 63 63 63 63 63 63 63 63 63 63 63 63   cccccccccccccccc
|   1440: 63 63 63 63 63 63 63 63 63 63 63 63 63 63 63 63   cccccccccccccccc
|   1456: 63 63 63 63 63 63 63 63 63 63 63 63 63 63 63 63   cccccccccccccccc
|   1472: 63 63 63 63 63 63 63 63 63 63 63 63 63 63 63 63   cccccccccccccccc
|   1488: 63 63 63 63 63 63 63 63 63 63 63 63 63 63 63 63   cccccccccccccccc
|   1504: 63 63 63 63 63 63 63 63 63 63 63 63 63 63 63 63   cccccccccccccccc
|   1520: 63 63 63 63 63 63 63 63 63 63 63 63 63 63 63 63   cccccccccccccccc
|   1536: 63 63 63 63 63 63 63 63 63 63 63 63 63 63 63 63   cccccccccccccccc
|   1552: 63 63 63 63 63 63 63 63 63 63 63 63 63 63 63 63   cccccccccccccccc
|   1568: 63 63 63 63 63 63 63 63 63 63 63 63 63 63 63 63   cccccccccccccccc
|   1584: 63 63 63 63 63 63 63 63 63 63 63 63 63 63 63 63   cccccccccccccccc
|   1600: 63 63 63 63 63 63 63 63 63 63 63 63 63 63 63 63   cccccccccccccccc
|   1616: 63 63 63 63 63 63 63 63 63 63 63 63 63 63 63 63   cccccccccccccccc
|   1632: 63 63 63 63 63 63 63 63 63 63 63 63 63 63 63 63   cccccccccccccccc
|   1648: 63 63 63 63 63 63 63 63 63 63 63 63 63 63 63 63   cccccccccccccccc
|   1664: 63 63 63 63 63 63 63 63 63 63 63 63 63 63 63 63   cccccccccccccccc
|   1680: 63 63 63 63 63 63 63 63 63 63 63 63 63 63 63 63   cccccccccccccccc
|   1696: 63 63 63 63 63 63 63 63 63 63 63 63 63 63 63 63   cccccccccccccccc
|   1712: 63 63 63 63 63 63 63 63 63 63 63 63 63 63 63 63   cccccccccccccccc
|   1728: 63 63 63 63 63 63 63 63 63 63 63 63 63 63 63 63   cccccccccccccccc
|   1744: 63 63 63 63 63 63 63 63 63 63 63 63 63 63 63 63   cccccccccccccccc
|   1760: 63 63 63 63 63 63 63 63 63 63 63 63 63 63 63 63   cccccccccccccccc
|   1776: 63 63 63 63 63 63 63 63 63 63 63 63 63 63 63 63   cccccccccccccccc
|   1792: 63 63 63 63 63 63 63 63 63 63 63 63 63 63 63 63   cccccccccccccccc
|   1808: 63 63 63 63 63 63 63 63 63 63 63 63 63 63 63 63   cccccccccccccccc
|   1824: 63 63 63 63 63 63 63 63 63 63 63 63 63 63 63 63   cccccccccccccccc
|   1840: 63 63 63 63 63 63 63 63 63 63 63 63 63 63 63 63   cccccccccccccccc
|   1856: 63 63 63 63 63 63 63 63 63 63 63 63 63 63 63 63   cccccccccccccccc
|   1872: 63 63 63 63 63 63 63 63 63 63 63 63 63 63 63 63   cccccccccccccccc
|   1888: 63 63 63 63 63 63 63 63 63 63 63 63 63 63 63 63   cccccccccccccccc
|   1904: 63 63 63 63 63 63 63 63 63 63 63 63 63 63 63 63   cccccccccccccccc
|   1920: 63 63 63 63 63 63 63 63 63 63 63 63 63 63 63 63   cccccccccccccccc
|   1936: 63 63 63 63 63 63 63 63 63 63 63 63 63 63 63 63   cccccccccccccccc
|   1952: 63 63 63 63 63 63 63 63 63 63 63 63 63 63 63 63   cccccccccccccccc
|   1968: 63 63 63 63 63 63 63 63 63 63 63 63 63 63 63 63   cccccccccccccccc
|   1984: 63 63 63 63 63 63 63 63 63 63 63 63 63 63 63 63   cccccccccccccccc
|   2000: 63 63 63 63 63 63 63 63 63 63 63 63 63 63 63 63   cccccccccccccccc
|   2016: 63 63 63 63 63 63 63 63 63 63 63 63 63 63 63 63   cccccccccccccccc
|   2032: 63 63 63 63 63 63 63 63 63 63 63 63 63 63 63 63   cccccccccccccccc
|   2048: 63 63 63 63 63 63 63 63 63 63 63 63 63 63 63 63   cccccccccccccccc
|   2064: 63 63 63 63 63 63 63 63 63 63 63 63 63 63 63 63   cccccccccccccccc
|   2080: 63 63 63 63 63 63 63 63 63 63 63 63 63 63 63 63   cccccccccccccccc
|   2096: 63 63 63 63 63 63 63 63 63 63 63 63 63 63 63 63   cccccccccccccccc
|   2112: 63 63 63 63 63 63 63 63 63 63 63 63 63 63 63 63   cccccccccccccccc
|   2128: 63 63 63 63 63 63 63 63 63 63 63 63 63 63 63 63   cccccccccccccccc
|   2144: 63 63 63 63 63 63 63 63 63 63 63 63 63 63 63 63   cccccccccccccccc
|   2160: 63 63 63 63 63 63 63 63 63 63 63 63 63 63 63 63   cccccccccccccccc
|   2176: 63 63 63 63 63 63 63 63 63 63 63 63 63 63 63 63   cccccccccccccccc
|   2192: 63 63 63 63 63 63 63 63 63 63 63 63 63 63 63 63   cccccccccccccccc
|   2208: 63 63 63 63 63 63 63 63 63 63 63 63 63 63 63 63   cccccccccccccccc
|   2224: 63 63 63 63 63 63 63 63 63 63 63 63 63 63 63 63   cccccccccccccccc
|   2240: 63 63 63 63 63 63 63 63 63 63 63 63 63 63 63 63   cccccccccccccccc
|   2256: 63 63 63 63 63 63 63 63 63 63 63 63 63 63 63 63   cccccccccccccccc
|   2272: 63 63 63 63 63 63 63 63 63 63 63 63 63 63 63 63   cccccccccccccccc
|   2288: 63 63 63 63 63 63 63 63 63 63 63 63 63 63 63 63   cccccccccccccccc
|   2304: 63 63 63 63 63 63 63 63 63 63 63 63 63 63 63 63   cccccccccccccccc
|   2320: 63 63 63 63 63 63 63 63 63 63 63 63 63 63 63 63   cccccccccccccccc
|   2336: 63 63 63 63 63 63 63 63 63 63 63 63 63 63 63 63   cccccccccccccccc
|   2352: 63 63 63 63 63 63 63 63 63 63 63 63 63 63 63 63   cccccccccccccccc
|   2368: 63 63 63 63 63 63 63 63 63 63 63 63 63 63 63 63   cccccccccccccccc
|   2384: 63 63 63 63 63 63 63 63 63 63 63 63 63 63 63 63   cccccccccccccccc
|   2400: 63 63 63 63 63 63 63 63 63 63 63 63 63 63 63 63   cccccccccccccccc
|   2416: 63 63 63 63 63 63 63 63 63 63 63 63 63 63 63 63   cccccccccccccccc
|   2432: 63 63 63 63 63 63 63 63 63 63 63 63 63 63 63 63   cccccccccccccccc
|   2448: 63 63 63 63 63 63 63 63 63 63 63 63 63 63 63 63   cccccccccccccccc
|   2464: 63 63 63 63 63 63 63 63 63 63 63 63 63 63 63 63   cccccccccccccccc
|   2480: 63 63 63 63 63 63 63 63 63 63 63 63 63 63 63 63   cccccccccccccccc
|   2496: 63 63 63 63 63 63 63 63 63 63 63 63 63 63 63 63   cccccccccccccccc
|   2512: 63 63 63 63 63 63 63 63 63 63 63 63 63 63 63 63   cccccccccccccccc
|   2528: 63 63 63 63 63 63 63 63 63 63 63 63 63 63 63 63   cccccccccccccccc
|   2544: 63 63 63 63 63 63 63 63 63 63 63 63 63 63 63 63   cccccccccccccccc
|   2560: 63 63 63 63 63 63 63 63 63 63 63 63 63 63 63 63   cccccccccccccccc
|   2576: 63 63 63 63 63 63 63 63 63 63 63 63 63 63 63 63   cccccccccccccccc
|   2592: 63 63 63 63 63 63 63 63 63 63 63 63 63 63 63 63   cccccccccccccccc
|   2608: 63 63 63 63 63 63 63 63 63 63 63 63 63 63 63 63   cccccccccccccccc
|   2624: 63 63 63 63 63 63 63 63 63 63 63 63 63 63 63 63   cccccccccccccccc
|   2640: 63 63 63 63 63 63 63 63 63 63 63 63 63 63 63 63   cccccccccccccccc
|   2656: 63 63 63 63 63 63 63 63 63 63 63 63 63 63 63 63   cccccccccccccccc
|   2672: 63 63 63 63 63 63 63 63 63 63 63 63 63 63 63 63   cccccccccccccccc
|   2688: 63 63 63 63 63 63 63 63 63 63 63 63 63 63 63 63   cccccccccccccccc
|   2704: 63 63 63 63 63 63 63 63 63 63 63 63 63 63 63 63   cccccccccccccccc
|   2720: 63 63 63 63 63 63 63 63 63 63 63 63 63 63 63 63   cccccccccccccccc
|   2736: 63 63 63 63 63 63 63 63 63 63 63 63 63 63 63 63   cccccccccccccccc
|   2752: 63 63 63 63 63 63 63 63 63 63 63 63 63 63 63 63   cccccccccccccccc
|   2768: 63 63 63 63 63 63 63 63 63 63 63 63 63 63 63 63   cccccccccccccccc
|   2784: 63 63 63 63 63 63 63 63 63 63 63 63 63 63 63 63   cccccccccccccccc
|   2800: 63 63 63 63 63 63 63 63 63 63 63 63 63 63 63 63   cccccccccccccccc
|   2816: 63 63 63 63 63 63 63 63 63 63 63 63 63 63 63 63   cccccccccccccccc
|   2832: 63 63 63 63 63 63 63 63 63 63 63 63 63 63 63 63   cccccccccccccccc
|   2848: 63 63 63 63 63 63 63 63 63 63 63 63 63 63 63 63   cccccccccccccccc
|   2864: 63 63 63 63 63 63 63 63 63 63 63 63 63 63 63 63   cccccccccccccccc
|   2880: 63 63 63 63 63 63 63 63 63 63 63 63 63 63 63 63   cccccccccccccccc
|   2896: 63 63 63 63 63 63 63 63 63 63 63 63 63 63 63 63   cccccccccccccccc
|   2912: 63 63 63 63 63 63 63 63 63 63 63 63 63 63 63 63   cccccccccccccccc
|   2928: 63 63 63 63 63 63 63 63 63 63 63 63 63 63 63 63   cccccccccccccccc
|   2944: 63 63 63 63 63 63 63 63 63 63 63 63 63 63 63 63   cccccccccccccccc
|   2960: 63 63 63 63 63 63 63 63 63 63 63 63 63 63 63 63   cccccccccccccccc
|   2976: 63 63 63 63 63 63 63 63 63 63 63 63 63 63 63 63   cccccccccccccccc
|   2992: 63 63 63 63 63 63 63 63 63 63 63 63 63 63 63 63   cccccccccccccccc
|   3008: 63 63 63 63 63 63 63 63 63 63 63 63 63 63 63 63   cccccccccccccccc
|   3024: 63 63 63 63 63 63 63 63 63 63 63 63 63 63 63 63   cccccccccccccccc
|   3040: 63 63 63 63 63 63 63 63 63 63 63 63 63 63 63 63   cccccccccccccccc
|   3056: 63 63 63 63 63 63 63 63 63 63 63 63 63 63 63 63   cccccccccccccccc
|   3072: 63 63 63 63 63 63 63 63 63 63 63 63 63 63 63 63   cccccccccccccccc
|   3088: 63 63 63 63 63 63 63 63 63 63 63 63 63 63 63 63   cccccccccccccccc
|   3104: 63 63 63 63 63 63 63 63 63 63 63 63 63 63 63 63   cccccccccccccccc
|   3120: 63 63 63 63 63 63 63 63 63 63 63 63 63 63 63 63   cccccccccccccccc
|   3136: 63 63 63 63 63 63 63 63 63 63 63 63 63 63 63 63   cccccccccccccccc
|   3152: 63 63 63 63 63 63 63 63 63 63 63 63 63 63 63 63   cccccccccccccccc
|   3168: 63 63 63 63 63 63 63 63 63 63 63 63 63 63 63 63   cccccccccccccccc
|   3184: 63 63 63 63 63 63 63 63 63 63 63 63 63 63 63 63   cccccccccccccccc
|   3200: 63 63 63 63 63 63 63 63 63 63 63 63 63 63 63 63   cccccccccccccccc
|   3216: 63 63 63 63 63 63 63 63 63 63 63 63 63 63 63 63   cccccccccccccccc
|   3232: 63 63 63 63 63 63 63 63 63 63 63 63 63 63 63 63   cccccccccccccccc
|   3248: 63 63 63 63 63 63 63 63 63 63 63 63 63 63 63 63   cccccccccccccccc
|   3264: 63 63 63 63 63 63 63 63 63 63 63 63 63 63 63 63   cccccccccccccccc
|   3280: 63 63 63 63 63 63 63 63 63 63 63 63 63 63 63 63   cccccccccccccccc
|   3296: 63 63 63 63 63 63 63 63 63 63 63 63 63 63 63 63   cccccccccccccccc
|   3312: 63 63 63 63 63 63 63 63 63 63 63 63 63 63 63 63   cccccccccccccccc
|   3328: 63 63 63 63 63 63 63 63 63 63 63 63 63 63 63 63   cccccccccccccccc
|   3344: 63 63 63 63 63 63 63 63 63 63 63 63 63 63 63 63   cccccccccccccccc
|   3360: 63 63 63 63 63 63 63 63 63 63 63 63 63 63 63 63   cccccccccccccccc
|   3376: 63 63 63 63 63 63 63 63 63 63 63 63 63 63 63 63   cccccccccccccccc
|   3392: 63 63 63 63 63 63 63 63 63 63 63 63 63 63 63 63   cccccccccccccccc
|   3408: 63 63 63 63 63 63 63 63 63 63 63 63 63 63 63 63   cccccccccccccccc
|   3424: 63 63 63 63 63 63 63 63 63 63 63 63 63 63 63 63   cccccccccccccccc
|   3440: 63 63 63 63 63 63 63 63 63 63 63 63 63 63 63 63   cccccccccccccccc
|   3456: 63 63 63 63 63 63 63 63 63 63 63 63 63 63 63 63   cccccccccccccccc
|   3472: 63 63 63 63 63 63 63 63 63 63 63 63 63 63 63 63   cccccccccccccccc
|   3488: 63 63 63 63 63 63 63 63 63 63 63 63 63 63 63 63   cccccccccccccccc
|   3504: 63 63 63 63 63 63 63 63 63 63 63 63 63 63 63 63   cccccccccccccccc
|   3520: 63 63 63 63 63 63 63 63 63 63 63 63 63 63 63 63   cccccccccccccccc
|   3536: 63 63 63 63 63 63 63 63 63 63 63 63 63 63 63 63   cccccccccccccccc
|   3552: 63 63 63 63 63 63 63 63 63 63 63 63 63 63 63 63   cccccccccccccccc
|   3568: 63 63 63 63 63 63 63 63 63 63 63 63 63 63 63 63   cccccccccccccccc
|   3584: 63 63 63 63 63 63 63 63 63 63 63 63 63 63 63 63   cccccccccccccccc
|   3600: 63 63 63 63 63 63 63 63 63 63 63 63 63 63 63 63   cccccccccccccccc
|   3616: 63 63 63 63 63 63 63 63 63 63 63 63 63 63 63 63   cccccccccccccccc
|   3632: 63 63 63 63 63 63 63 63 63 63 63 63 63 63 63 63   cccccccccccccccc
|   3648: 63 63 63 63 63 63 63 63 63 63 63 63 63 63 63 63   cccccccccccccccc
|   3664: 63 63 63 63 63 63 63 63 63 63 63 63 63 63 63 63   cccccccccccccccc
|   3680: 63 63 63 63 63 63 63 63 63 63 63 63 63 63 63 63   cccccccccccccccc
|   3696: 63 63 63 63 63 63 63 63 63 63 63 63 63 63 63 63   cccccccccccccccc
|   3712: 63 63 63 63 63 63 63 63 63 63 63 63 63 63 63 63   cccccccccccccccc
|   3728: 63 63 63 63 63 63 63 63 63 63 63 63 63 63 63 63   cccccccccccccccc
|   3744: 63 63 63 63 63 63 63 63 63 63 63 63 63 63 63 63   cccccccccccccccc
|   3760: 63 63 63 63 63 63 63 63 63 63 63 63 63 63 63 63   cccccccccccccccc
|   3776: 63 63 63 63 63 63 63 63 63 63 63 63 63 63 63 63   cccccccccccccccc
|   3792: 63 63 63 63 63 63 63 63 63 63 63 63 63 63 63 63   cccccccccccccccc
|   3808: 63 63 63 63 63 63 63 63 63 63 63 63 63 63 63 63   cccccccccccccccc
|   3824: 63 63 63 63 63 63 63 63 63 63 63 63 63 63 63 63   cccccccccccccccc
|   3840: 63 63 63 63 63 63 63 63 63 63 63 63 63 63 63 63   cccccccccccccccc
|   3856: 63 63 63 63 63 63 63 63 63 63 63 63 63 63 63 63   cccccccccccccccc
|   3872: 63 63 63 63 63 63 63 63 63 63 63 63 63 63 63 63   cccccccccccccccc
|   3888: 63 63 63 63 63 63 63 63 63 63 63 63 63 63 63 63   cccccccccccccccc
|   3904: 63 63 63 63 63 63 63 63 63 63 63 63 63 63 63 63   cccccccccccccccc
|   3920: 63 63 63 63 63 63 63 63 63 63 63 63 63 63 63 63   cccccccccccccccc
|   3936: 63 63 63 63 63 63 63 63 63 63 63 63 63 63 63 63   cccccccccccccccc
|   3952: 63 63 63 63 63 63 63 63 63 63 63 63 63 63 63 63   cccccccccccccccc
|   3968: 63 63 63 63 63 63 63 63 63 63 63 63 63 63 63 63   cccccccccccccccc
|   3984: 63 63 63 63 63 63 63 63 63 63 63 63 63 63 63 63   cccccccccccccccc
|   4000: 63 63 63 63 63 63 63 63 63 63 63 63 63 63 63 63   cccccccccccccccc
|   4016: 63 63 63 63 63 63 63 63 63 63 63 63 63 63 63 63   cccccccccccccccc
|   4032: 63 63 63 63 63 63 63 63 63 63 63 63 63 63 63 63   cccccccccccccccc
|   4048: 63 63 63 63 63 63 63 63 63 63 63 63 63 63 63 63   cccccccccccccccc
|   4064: 63 63 63 63 63 63 63 63 63 63 63 63 63 63 63 63   cccccccccccccccc
|   4080: 63 63 63 63 63 63 63 63 63 63 63 00 00 00 07 01   ccccccccccc.....
| page 5 offset 16384
|      0: 0d 00 00 00 02 0f f4 00 0f fa 0f f4 00 00 00 00   ................
|   4080: 00 00 00 00 04 02 03 00 0e 01 04 01 03 00 0e 01   ................
| page 6 offset 20480
|      0: 0a 00 00 00 02 0f eb 00 0f eb 0f f4 00 00 00 00   ................
|   4064: 00 00 00 00 00 00 00 00 00 00 00 08 03 15 01 70   ...............p
|   4080: 67 73 7a 40 0b 03 1b 01 76 65 72 73 69 6f 6e 04   gsz@....version.
| page 7 offset 24576
|      0: 0d 00 00 00 01 00 59 00 00 59 00 00 00 00 00 00   ......Y..Y......
|     80: 00 00 00 00 00 00 00 00 00 9f 24 01 04 00 be 4d   ..........$....M
|     96: 63 63 63 63 63 63 63 63 63 63 63 63 63 63 63 63   cccccccccccccccc
|    112: 63 63 63 63 63 63 63 63 63 63 63 63 63 63 63 63   cccccccccccccccc
|    128: 63 63 63 63 63 63 63 63 63 63 63 63 63 63 63 63   cccccccccccccccc
|    144: 63 63 63 63 63 63 63 63 63 63 63 63 63 63 63 63   cccccccccccccccc
|    160: 63 63 63 63 63 63 63 63 63 63 63 63 63 63 63 63   cccccccccccccccc
|    176: 63 63 63 63 63 63 63 63 63 63 63 63 63 63 63 63   cccccccccccccccc
|    192: 63 63 63 63 63 63 63 63 63 63 63 63 63 63 63 63   cccccccccccccccc
|    208: 63 63 63 63 63 63 63 63 63 63 63 63 63 63 63 63   cccccccccccccccc
|    224: 63 63 63 63 63 63 63 63 63 63 63 63 63 63 63 63   cccccccccccccccc
|    240: 63 63 63 63 63 63 63 63 63 63 63 63 63 63 63 63   cccccccccccccccc
|    256: 63 63 63 63 63 63 63 63 63 63 63 63 63 63 63 63   cccccccccccccccc
|    272: 63 63 63 63 63 63 63 63 63 63 63 63 63 63 63 63   cccccccccccccccc
|    288: 63 63 63 63 63 63 63 63 63 63 63 63 63 63 63 63   cccccccccccccccc
|    304: 63 63 63 63 63 63 63 63 63 63 63 63 63 63 63 63   cccccccccccccccc
|    320: 63 63 63 63 63 63 63 63 63 63 63 63 63 63 63 63   cccccccccccccccc
|    336: 63 63 63 63 63 63 63 63 63 63 63 63 63 63 63 63   cccccccccccccccc
|    352: 63 63 63 63 63 63 63 63 63 63 63 63 63 63 63 63   cccccccccccccccc
|    368: 63 63 63 63 63 63 63 63 63 63 63 63 63 63 63 63   cccccccccccccccc
|    384: 63 63 63 63 63 63 63 63 63 63 63 63 63 63 63 63   cccccccccccccccc
|    400: 63 63 63 63 63 63 63 63 63 63 63 63 63 63 63 63   cccccccccccccccc
|    416: 63 63 63 63 63 63 63 63 63 63 63 63 63 63 63 63   cccccccccccccccc
|    432: 63 63 63 63 63 63 63 63 63 63 63 63 63 63 63 63   cccccccccccccccc
|    448: 63 63 63 63 63 63 63 63 63 63 63 63 63 63 63 63   cccccccccccccccc
|    464: 63 63 63 63 63 63 63 63 63 63 63 63 63 63 63 63   cccccccccccccccc
|    480: 63 63 63 63 63 63 63 63 63 63 63 63 63 63 63 63   cccccccccccccccc
|    496: 63 63 63 63 63 63 63 63 63 63 63 63 63 63 63 63   cccccccccccccccc
|    512: 63 63 63 63 63 63 63 63 63 63 63 63 63 63 63 63   cccccccccccccccc
|    528: 63 63 63 63 63 63 63 63 63 63 63 63 63 63 63 63   cccccccccccccccc
|    544: 63 63 63 63 63 63 63 63 63 63 63 63 63 63 63 63   cccccccccccccccc
|    560: 63 63 63 63 63 63 63 63 63 63 63 63 63 63 63 63   cccccccccccccccc
|    576: 63 63 63 63 63 63 63 63 63 63 63 63 63 63 63 63   cccccccccccccccc
|    592: 63 63 63 63 63 63 63 63 63 63 63 63 63 63 63 63   cccccccccccccccc
|    608: 63 63 63 63 63 63 63 63 63 63 63 63 63 63 63 63   cccccccccccccccc
|    624: 63 63 63 63 63 63 63 63 63 63 63 63 63 63 63 63   cccccccccccccccc
|    640: 63 63 63 63 63 63 63 63 63 63 63 63 63 63 63 63   cccccccccccccccc
|    656: 63 63 63 63 63 63 63 63 63 63 63 63 63 63 63 63   cccccccccccccccc
|    672: 63 63 63 63 63 63 63 63 63 63 63 63 63 63 63 63   cccccccccccccccc
|    688: 63 63 63 63 63 63 63 63 63 63 63 63 63 63 63 63   cccccccccccccccc
|    704: 63 63 63 63 63 63 63 63 63 63 63 63 63 63 63 63   cccccccccccccccc
|    720: 63 63 63 63 63 63 63 63 63 63 63 63 63 63 63 63   cccccccccccccccc
|    736: 63 63 63 63 63 63 63 63 63 63 63 63 63 63 63 63   cccccccccccccccc
|    752: 63 63 63 63 63 63 63 63 63 63 63 63 63 63 63 63   cccccccccccccccc
|    768: 63 63 63 63 63 63 63 63 63 63 63 63 63 63 63 63   cccccccccccccccc
|    784: 63 63 63 63 63 63 63 63 63 63 63 63 63 63 63 63   cccccccccccccccc
|    800: 63 63 63 63 63 63 63 63 63 63 63 63 63 63 63 63   cccccccccccccccc
|    816: 63 63 63 63 63 63 63 63 63 63 63 63 63 63 63 63   cccccccccccccccc
|    832: 63 63 63 63 63 63 63 63 63 63 63 63 63 63 63 63   cccccccccccccccc
|    848: 63 63 63 63 63 63 63 63 63 63 63 63 63 63 63 63   cccccccccccccccc
|    864: 63 63 63 63 63 63 63 63 63 63 63 63 63 63 63 63   cccccccccccccccc
|    880: 63 63 63 63 63 63 63 63 63 63 63 63 63 63 63 63   cccccccccccccccc
|    896: 63 63 63 63 63 63 63 63 63 63 63 63 63 63 63 63   cccccccccccccccc
|    912: 63 63 63 63 63 63 63 63 63 63 63 63 63 63 63 63   cccccccccccccccc
|    928: 63 63 63 63 63 63 63 63 63 63 63 63 63 63 63 63   cccccccccccccccc
|    944: 63 63 63 63 63 63 63 63 63 63 63 63 63 63 63 63   cccccccccccccccc
|    960: 63 63 63 63 63 63 63 63 63 63 63 63 63 63 63 63   cccccccccccccccc
|    976: 63 63 63 63 63 63 63 63 63 63 63 63 63 63 63 63   cccccccccccccccc
|    992: 63 63 63 63 63 63 63 63 63 63 63 63 63 63 63 63   cccccccccccccccc
|   1008: 63 63 63 63 63 63 63 63 63 63 63 63 63 63 63 63   cccccccccccccccc
|   1024: 63 63 63 63 63 63 63 63 63 63 63 63 63 63 63 63   cccccccccccccccc
|   1040: 63 63 63 63 63 63 63 63 63 63 63 63 63 63 63 63   cccccccccccccccc
|   1056: 63 63 63 63 63 63 63 63 63 63 63 63 63 63 63 63   cccccccccccccccc
|   1072: 63 63 63 63 63 63 63 63 63 63 63 63 63 63 63 63   cccccccccccccccc
|   1088: 63 63 63 63 63 63 63 63 63 63 63 63 63 63 63 63   cccccccccccccccc
|   1104: 63 63 63 63 63 63 63 63 63 63 63 63 63 63 63 63   cccccccccccccccc
|   1120: 63 63 63 63 63 63 63 63 63 63 63 63 63 63 63 63   cccccccccccccccc
|   1136: 63 63 63 63 63 63 63 63 63 63 63 63 63 63 63 63   cccccccccccccccc
|   1152: 63 63 63 63 63 63 63 63 63 63 63 63 63 63 63 63   cccccccccccccccc
|   1168: 63 63 63 63 63 63 63 63 63 63 63 63 63 63 63 63   cccccccccccccccc
|   1184: 63 63 63 63 63 63 63 63 63 63 63 63 63 63 63 63   cccccccccccccccc
|   1200: 63 63 63 63 63 63 63 63 63 63 63 63 63 63 63 63   cccccccccccccccc
|   1216: 63 63 63 63 63 63 63 63 63 63 63 63 63 63 63 63   cccccccccccccccc
|   1232: 63 63 63 63 63 63 63 63 63 63 63 63 63 63 63 63   cccccccccccccccc
|   1248: 63 63 63 63 63 63 63 63 63 63 63 63 63 63 63 63   cccccccccccccccc
|   1264: 63 63 63 63 63 63 63 63 63 63 63 63 63 63 63 63   cccccccccccccccc
|   1280: 63 63 63 63 63 63 63 63 63 63 63 63 63 63 63 63   cccccccccccccccc
|   1296: 63 63 63 63 63 63 63 63 63 63 63 63 63 63 63 63   cccccccccccccccc
|   1312: 63 63 63 63 63 63 63 63 63 63 63 63 63 63 63 63   cccccccccccccccc
|   1328: 63 63 63 63 63 63 63 63 63 63 63 63 63 63 63 63   cccccccccccccccc
|   1344: 63 63 63 63 63 63 63 63 63 63 63 63 63 63 63 63   cccccccccccccccc
|   1360: 63 63 63 63 63 63 63 63 63 63 63 63 63 63 63 63   cccccccccccccccc
|   1376: 63 63 63 63 63 63 63 63 63 63 63 63 63 63 63 63   cccccccccccccccc
|   1392: 63 63 63 63 63 63 63 63 63 63 63 63 63 63 63 63   cccccccccccccccc
|   1408: 63 63 63 63 63 63 63 63 63 63 63 63 63 63 63 63   cccccccccccccccc
|   1424: 63 63 63 63 63 63 63 63 63 63 63 63 63 63 63 63   cccccccccccccccc
|   1440: 63 63 63 63 63 63 63 63 63 63 63 63 63 63 63 63   cccccccccccccccc
|   1456: 63 63 63 63 63 63 63 63 63 63 63 63 63 63 63 63   cccccccccccccccc
|   1472: 63 63 63 63 63 63 63 63 63 63 63 63 63 63 63 63   cccccccccccccccc
|   1488: 63 63 63 63 63 63 63 63 63 63 63 63 63 63 63 63   cccccccccccccccc
|   1504: 63 63 63 63 63 63 63 63 63 63 63 63 63 63 63 63   cccccccccccccccc
|   1520: 63 63 63 63 63 63 63 63 63 63 63 63 63 63 63 63   cccccccccccccccc
|   1536: 63 63 63 63 63 63 63 63 63 63 63 63 63 63 63 63   cccccccccccccccc
|   1552: 63 63 63 63 63 63 63 63 63 63 63 63 63 63 63 63   cccccccccccccccc
|   1568: 63 63 63 63 63 63 63 63 63 63 63 63 63 63 63 63   cccccccccccccccc
|   1584: 63 63 63 63 63 63 63 63 63 63 63 63 63 63 63 63   cccccccccccccccc
|   1600: 63 63 63 63 63 63 63 63 63 63 63 63 63 63 63 63   cccccccccccccccc
|   1616: 63 63 63 63 63 63 63 63 63 63 63 63 63 63 63 63   cccccccccccccccc
|   1632: 63 63 63 63 63 63 63 63 63 63 63 63 63 63 63 63   cccccccccccccccc
|   1648: 63 63 63 63 63 63 63 63 63 63 63 63 63 63 63 63   cccccccccccccccc
|   1664: 63 63 63 63 63 63 63 63 63 63 63 63 63 63 63 63   cccccccccccccccc
|   1680: 63 63 63 63 63 63 63 63 63 63 63 63 63 63 63 63   cccccccccccccccc
|   1696: 63 63 63 63 63 63 63 63 63 63 63 63 63 63 63 63   cccccccccccccccc
|   1712: 63 63 63 63 63 63 63 63 63 63 63 63 63 63 63 63   cccccccccccccccc
|   1728: 63 63 63 63 63 63 63 63 63 63 63 63 63 63 63 63   cccccccccccccccc
|   1744: 63 63 63 63 63 63 63 63 63 63 63 63 63 63 63 63   cccccccccccccccc
|   1760: 63 63 63 63 63 63 63 63 63 63 63 63 63 63 63 63   cccccccccccccccc
|   1776: 63 63 63 63 63 63 63 63 63 63 63 63 63 63 63 63   cccccccccccccccc
|   1792: 63 63 63 63 63 63 63 63 63 63 63 63 63 63 63 63   cccccccccccccccc
|   1808: 63 63 63 63 63 63 63 63 63 63 63 63 63 63 63 63   cccccccccccccccc
|   1824: 63 63 63 63 63 63 63 63 63 63 63 63 63 63 63 63   cccccccccccccccc
|   1840: 63 63 63 63 63 63 63 63 63 63 63 63 63 63 63 63   cccccccccccccccc
|   1856: 63 63 63 63 63 63 63 63 63 63 63 63 63 63 63 63   cccccccccccccccc
|   1872: 63 63 63 63 63 63 63 63 63 63 63 63 63 63 63 63   cccccccccccccccc
|   1888: 63 63 63 63 63 63 63 63 63 63 63 63 63 63 63 63   cccccccccccccccc
|   1904: 63 63 63 63 63 63 63 63 63 63 63 63 63 63 63 63   cccccccccccccccc
|   1920: 63 63 63 63 63 63 63 63 63 63 63 63 63 63 63 63   cccccccccccccccc
|   1936: 63 63 63 63 63 63 63 63 63 63 63 63 63 63 63 63   cccccccccccccccc
|   1952: 63 63 63 63 63 63 63 63 63 63 63 63 63 63 63 63   cccccccccccccccc
|   1968: 63 63 63 63 63 63 63 63 63 63 63 63 63 63 63 63   cccccccccccccccc
|   1984: 63 63 63 63 63 63 63 63 63 63 63 63 63 63 63 63   cccccccccccccccc
|   2000: 63 63 63 63 63 63 63 63 63 63 63 63 63 63 63 63   cccccccccccccccc
|   2016: 63 63 63 63 63 63 63 63 63 63 63 63 63 63 63 63   cccccccccccccccc
|   2032: 63 63 63 63 63 63 63 63 63 63 63 63 63 63 63 63   cccccccccccccccc
|   2048: 63 63 63 63 63 63 63 63 63 63 63 63 63 63 63 63   cccccccccccccccc
|   2064: 63 63 63 63 63 63 63 63 63 63 63 63 63 63 63 63   cccccccccccccccc
|   2080: 63 63 63 63 63 63 63 63 63 63 63 63 63 63 63 63   cccccccccccccccc
|   2096: 63 63 63 63 63 63 63 63 63 63 63 63 63 63 63 63   cccccccccccccccc
|   2112: 63 63 63 63 63 63 63 63 63 63 63 63 63 63 63 63   cccccccccccccccc
|   2128: 63 63 63 63 63 63 63 63 63 63 63 63 63 63 63 63   cccccccccccccccc
|   2144: 63 63 63 63 63 63 63 63 63 63 63 63 63 63 63 63   cccccccccccccccc
|   2160: 63 63 63 63 63 63 63 63 63 63 63 63 63 63 63 63   cccccccccccccccc
|   2176: 63 63 63 63 63 63 63 63 63 63 63 63 63 63 63 63   cccccccccccccccc
|   2192: 63 63 63 63 63 63 63 63 63 63 63 63 63 63 63 63   cccccccccccccccc
|   2208: 63 63 63 63 63 63 63 63 63 63 63 63 63 63 63 63   cccccccccccccccc
|   2224: 63 63 63 63 63 63 63 63 63 63 63 63 63 63 63 63   cccccccccccccccc
|   2240: 63 63 63 63 63 63 63 63 63 63 63 63 63 63 63 63   cccccccccccccccc
|   2256: 63 63 63 63 63 63 63 63 63 63 63 63 63 63 63 63   cccccccccccccccc
|   2272: 63 63 63 63 63 63 63 63 63 63 63 63 63 63 63 63   cccccccccccccccc
|   2288: 63 63 63 63 63 63 63 63 63 63 63 63 63 63 63 63   cccccccccccccccc
|   2304: 63 63 63 63 63 63 63 63 63 63 63 63 63 63 63 63   cccccccccccccccc
|   2320: 63 63 63 63 63 63 63 63 63 63 63 63 63 63 63 63   cccccccccccccccc
|   2336: 63 63 63 63 63 63 63 63 63 63 63 63 63 63 63 63   cccccccccccccccc
|   2352: 63 63 63 63 63 63 63 63 63 63 63 63 63 63 63 63   cccccccccccccccc
|   2368: 63 63 63 63 63 63 63 63 63 63 63 63 63 63 63 63   cccccccccccccccc
|   2384: 63 63 63 63 63 63 63 63 63 63 63 63 63 63 63 63   cccccccccccccccc
|   2400: 63 63 63 63 63 63 63 63 63 63 63 63 63 63 63 63   cccccccccccccccc
|   2416: 63 63 63 63 63 63 63 63 63 63 63 63 63 63 63 63   cccccccccccccccc
|   2432: 63 63 63 63 63 63 63 63 63 63 63 63 63 63 63 63   cccccccccccccccc
|   2448: 63 63 63 63 63 63 63 63 63 63 63 63 63 63 63 63   cccccccccccccccc
|   2464: 63 63 63 63 63 63 63 63 63 63 63 63 63 63 63 63   cccccccccccccccc
|   2480: 63 63 63 63 63 63 63 63 63 63 63 63 63 63 63 63   cccccccccccccccc
|   2496: 63 63 63 63 63 63 63 63 63 63 63 63 63 63 63 63   cccccccccccccccc
|   2512: 63 63 63 63 63 63 63 63 63 63 63 63 63 63 63 63   cccccccccccccccc
|   2528: 63 63 63 63 63 63 63 63 63 63 63 63 63 63 63 63   cccccccccccccccc
|   2544: 63 63 63 63 63 63 63 63 63 63 63 63 63 63 63 63   cccccccccccccccc
|   2560: 63 63 63 63 63 63 63 63 63 63 63 63 63 63 63 63   cccccccccccccccc
|   2576: 63 63 63 63 63 63 63 63 63 63 63 63 63 63 63 63   cccccccccccccccc
|   2592: 63 63 63 63 63 63 63 63 63 63 63 63 63 63 63 63   cccccccccccccccc
|   2608: 63 63 63 63 63 63 63 63 63 63 63 63 63 63 63 63   cccccccccccccccc
|   2624: 63 63 63 63 63 63 63 63 63 63 63 63 63 63 63 63   cccccccccccccccc
|   2640: 63 63 63 63 63 63 63 63 63 63 63 63 63 63 63 63   cccccccccccccccc
|   2656: 63 63 63 63 63 63 63 63 63 63 63 63 63 63 63 63   cccccccccccccccc
|   2672: 63 63 63 63 63 63 63 63 63 63 63 63 63 63 63 63   cccccccccccccccc
|   2688: 63 63 63 63 63 63 63 63 63 63 63 63 63 63 63 63   cccccccccccccccc
|   2704: 63 63 63 63 63 63 63 63 63 63 63 63 63 63 63 63   cccccccccccccccc
|   2720: 63 63 63 63 63 63 63 63 63 63 63 63 63 63 63 63   cccccccccccccccc
|   2736: 63 63 63 63 63 63 63 63 63 63 63 63 63 63 63 63   cccccccccccccccc
|   2752: 63 63 63 63 63 63 63 63 63 63 63 63 63 63 63 63   cccccccccccccccc
|   2768: 63 63 63 63 63 63 63 63 63 63 63 63 63 63 63 63   cccccccccccccccc
|   2784: 63 63 63 63 63 63 63 63 63 63 63 63 63 63 63 63   cccccccccccccccc
|   2800: 63 63 63 63 63 63 63 63 63 63 63 63 63 63 63 63   cccccccccccccccc
|   2816: 63 63 63 63 63 63 63 63 63 63 63 63 63 63 63 63   cccccccccccccccc
|   2832: 63 63 63 63 63 63 63 63 63 63 63 63 63 63 63 63   cccccccccccccccc
|   2848: 63 63 63 63 63 63 63 63 63 63 63 63 63 63 63 63   cccccccccccccccc
|   2864: 63 63 63 63 63 63 63 63 63 63 63 63 63 63 63 63   cccccccccccccccc
|   2880: 63 63 63 63 63 63 63 63 63 63 63 63 63 63 63 63   cccccccccccccccc
|   2896: 63 63 63 63 63 63 63 63 63 63 63 63 63 63 63 63   cccccccccccccccc
|   2912: 63 63 63 63 63 63 63 63 63 63 63 63 63 63 63 63   cccccccccccccccc
|   2928: 63 63 63 63 63 63 63 63 63 63 63 63 63 63 63 63   cccccccccccccccc
|   2944: 63 63 63 63 63 63 63 63 63 63 63 63 63 63 63 63   cccccccccccccccc
|   2960: 63 63 63 63 63 63 63 63 63 63 63 63 63 63 63 63   cccccccccccccccc
|   2976: 63 63 63 63 63 63 63 63 63 63 63 63 63 63 63 63   cccccccccccccccc
|   2992: 63 63 63 63 63 63 63 63 63 63 63 63 63 63 63 63   cccccccccccccccc
|   3008: 63 63 63 63 63 63 63 63 63 63 63 63 63 63 63 63   cccccccccccccccc
|   3024: 63 63 63 63 63 63 63 63 63 63 63 63 63 63 63 63   cccccccccccccccc
|   3040: 63 63 63 63 63 63 63 63 63 63 63 63 63 63 63 63   cccccccccccccccc
|   3056: 63 63 63 63 63 63 63 63 63 63 63 63 63 63 63 63   cccccccccccccccc
|   3072: 63 63 63 63 63 63 63 63 63 63 63 63 63 63 63 63   cccccccccccccccc
|   3088: 63 63 63 63 63 63 63 63 63 63 63 63 63 63 63 63   cccccccccccccccc
|   3104: 63 63 63 63 63 63 63 63 63 63 63 63 63 63 63 63   cccccccccccccccc
|   3120: 63 63 63 63 63 63 63 63 63 63 63 63 63 63 63 63   cccccccccccccccc
|   3136: 63 63 63 63 63 63 63 63 63 63 63 63 63 63 63 63   cccccccccccccccc
|   3152: 63 63 63 63 63 63 63 63 63 63 63 63 63 63 63 63   cccccccccccccccc
|   3168: 63 63 63 63 63 63 63 63 63 63 63 63 63 63 63 63   cccccccccccccccc
|   3184: 63 63 63 63 63 63 63 63 63 63 63 63 63 63 63 63   cccccccccccccccc
|   3200: 63 63 63 63 63 63 63 63 63 63 63 63 63 63 63 63   cccccccccccccccc
|   3216: 63 63 63 63 63 63 63 63 63 63 63 63 63 63 63 63   cccccccccccccccc
|   3232: 63 63 63 63 63 63 63 63 63 63 63 63 63 63 63 63   cccccccccccccccc
|   3248: 63 63 63 63 63 63 63 63 63 63 63 63 63 63 63 63   cccccccccccccccc
|   3264: 63 63 63 63 63 63 63 63 63 63 63 63 63 63 63 63   cccccccccccccccc
|   3280: 63 63 63 63 63 63 63 63 63 63 63 63 63 63 63 63   cccccccccccccccc
|   3296: 63 63 63 63 63 63 63 63 63 63 63 63 63 63 63 63   cccccccccccccccc
|   3312: 63 63 63 63 63 63 63 63 63 63 63 63 63 63 63 63   cccccccccccccccc
|   3328: 63 63 63 63 63 63 63 63 63 63 63 63 63 63 63 63   cccccccccccccccc
|   3344: 63 63 63 63 63 63 63 63 63 63 63 63 63 63 63 63   cccccccccccccccc
|   3360: 63 63 63 63 63 63 63 63 63 63 63 63 63 63 63 63   cccccccccccccccc
|   3376: 63 63 63 63 63 63 63 63 63 63 63 63 63 63 63 63   cccccccccccccccc
|   3392: 63 63 63 63 63 63 63 63 63 63 63 63 63 63 63 63   cccccccccccccccc
|   3408: 63 63 63 63 63 63 63 63 63 63 63 63 63 63 63 63   cccccccccccccccc
|   3424: 63 63 63 63 63 63 63 63 63 63 63 63 63 63 63 63   cccccccccccccccc
|   3440: 63 63 63 63 63 63 63 63 63 63 63 63 63 63 63 63   cccccccccccccccc
|   3456: 63 63 63 63 63 63 63 63 63 63 63 63 63 63 63 63   cccccccccccccccc
|   3472: 63 63 63 63 63 63 63 63 63 63 63 63 63 63 63 63   cccccccccccccccc
|   3488: 63 63 63 63 63 63 63 63 63 63 63 63 63 63 63 63   cccccccccccccccc
|   3504: 63 63 63 63 63 63 63 63 63 63 63 63 63 63 63 63   cccccccccccccccc
|   3520: 63 63 63 63 63 63 63 63 63 63 63 63 63 63 63 63   cccccccccccccccc
|   3536: 63 63 63 63 63 63 63 63 63 63 63 63 63 63 63 63   cccccccccccccccc
|   3552: 63 63 63 63 63 63 63 63 63 63 63 63 63 63 63 63   cccccccccccccccc
|   3568: 63 63 63 63 63 63 63 63 63 63 63 63 63 63 63 63   cccccccccccccccc
|   3584: 63 63 63 63 63 63 63 63 63 63 63 63 63 63 63 63   cccccccccccccccc
|   3600: 63 63 63 63 63 63 63 63 63 63 63 63 63 63 63 63   cccccccccccccccc
|   3616: 63 63 63 63 63 63 63 63 63 63 63 63 63 63 63 63   cccccccccccccccc
|   3632: 63 63 63 63 63 63 63 63 63 63 63 63 63 63 63 63   cccccccccccccccc
|   3648: 63 63 63 63 63 63 63 63 63 63 63 63 63 63 63 63   cccccccccccccccc
|   3664: 63 63 63 63 63 63 63 63 63 63 63 63 63 63 63 63   cccccccccccccccc
|   3680: 63 63 63 63 63 63 63 63 63 63 63 63 63 63 63 63   cccccccccccccccc
|   3696: 63 63 63 63 63 63 63 63 63 63 63 63 63 63 63 63   cccccccccccccccc
|   3712: 63 63 63 63 63 63 63 63 63 63 63 63 63 63 63 63   cccccccccccccccc
|   3728: 63 63 63 63 63 63 63 63 63 63 63 63 63 63 63 63   cccccccccccccccc
|   3744: 63 63 63 63 63 63 63 63 63 63 63 63 63 63 63 63   cccccccccccccccc
|   3760: 63 63 63 63 63 63 63 63 63 63 63 63 63 63 63 63   cccccccccccccccc
|   3776: 63 63 63 63 63 63 63 63 63 63 63 63 63 63 63 63   cccccccccccccccc
|   3792: 63 63 63 63 63 63 63 63 63 63 63 63 63 63 63 63   cccccccccccccccc
|   3808: 63 63 63 63 63 63 63 63 63 63 63 63 63 63 63 63   cccccccccccccccc
|   3824: 63 63 63 63 63 63 63 63 63 63 63 63 63 63 63 63   cccccccccccccccc
|   3840: 63 63 63 63 63 63 63 63 63 63 63 63 63 63 63 63   cccccccccccccccc
|   3856: 63 63 63 63 63 63 63 63 63 63 63 63 63 63 63 63   cccccccccccccccc
|   3872: 63 63 63 63 63 63 63 63 63 63 63 63 63 63 63 63   cccccccccccccccc
|   3888: 63 63 63 63 63 63 63 63 63 63 63 63 63 63 63 63   cccccccccccccccc
|   3904: 63 63 63 63 63 63 63 63 63 63 63 63 63 63 63 63   cccccccccccccccc
|   3920: 63 63 63 63 63 63 63 63 63 63 63 63 63 63 63 63   cccccccccccccccc
|   3936: 63 63 63 63 63 63 63 63 63 63 63 63 63 63 63 63   cccccccccccccccc
|   3952: 63 63 63 63 63 63 63 63 63 63 63 63 63 63 63 63   cccccccccccccccc
|   3968: 63 63 63 63 63 63 63 63 63 63 63 63 63 63 63 63   cccccccccccccccc
|   3984: 63 63 63 63 63 63 63 63 63 63 63 63 63 63 63 63   cccccccccccccccc
|   4000: 63 63 63 63 63 63 63 63 63 63 63 63 63 63 63 63   cccccccccccccccc
|   4016: 63 63 63 63 63 63 63 63 63 63 63 63 63 63 63 63   cccccccccccccccc
|   4032: 63 63 63 63 63 63 63 63 63 63 63 63 63 63 63 63   cccccccccccccccc
|   4048: 63 63 63 63 63 63 63 63 63 63 63 63 63 63 63 63   cccccccccccccccc
|   4064: 63 63 63 63 63 63 63 63 63 63 63 63 63 63 63 63   cccccccccccccccc
|   4080: 63 63 63 63 63 63 63 63 63 63 63 63 63 63 63 63   cccccccccccccccc
| page 8 offset 28672
|      0: 0d 00 00 00 01 00 58 00 00 58 00 00 00 00 00 00   ......X..X......
|     80: 00 00 00 00 00 00 00 00 9f 25 02 04 00 be 4f 63   .........%....Oc
|     96: 63 63 63 63 63 63 63 63 63 63 63 63 63 63 63 63   cccccccccccccccc
|    112: 63 63 63 63 63 63 63 63 63 63 63 63 63 63 63 63   cccccccccccccccc
|    128: 63 63 63 63 63 63 63 63 63 63 63 63 63 63 63 63   cccccccccccccccc
|    144: 63 63 63 63 63 63 63 63 63 63 63 63 63 63 63 63   cccccccccccccccc
|    160: 63 63 63 63 63 63 63 63 63 63 63 63 63 63 63 63   cccccccccccccccc
|    176: 63 63 63 63 63 63 63 63 63 63 63 63 63 63 63 63   cccccccccccccccc
|    192: 63 63 63 63 63 63 63 63 63 63 63 63 63 63 63 63   cccccccccccccccc
|    208: 63 63 63 63 63 63 63 63 63 63 63 63 63 63 63 63   cccccccccccccccc
|    224: 63 63 63 63 63 63 63 63 63 63 63 63 63 63 63 63   cccccccccccccccc
|    240: 63 63 63 63 63 63 63 63 63 63 63 63 63 63 63 63   cccccccccccccccc
|    256: 63 63 63 63 63 63 63 63 63 63 63 63 63 63 63 63   cccccccccccccccc
|    272: 63 63 63 63 63 63 63 63 63 63 63 63 63 63 63 63   cccccccccccccccc
|    288: 63 63 63 63 63 63 63 63 63 63 63 63 63 63 63 63   cccccccccccccccc
|    304: 63 63 63 63 63 63 63 63 63 63 63 63 63 63 63 63   cccccccccccccccc
|    320: 63 63 63 63 63 63 63 63 63 63 63 63 63 63 63 63   cccccccccccccccc
|    336: 63 63 63 63 63 63 63 63 63 63 63 63 63 63 63 63   cccccccccccccccc
|    352: 63 63 63 63 63 63 63 63 63 63 63 63 63 63 63 63   cccccccccccccccc
|    368: 63 63 63 63 63 63 63 63 63 63 63 63 63 63 63 63   cccccccccccccccc
|    384: 63 63 63 63 63 63 63 63 63 63 63 63 63 63 63 63   cccccccccccccccc
|    400: 63 63 63 63 63 63 63 63 63 63 63 63 63 63 63 63   cccccccccccccccc
|    416: 63 63 63 63 63 63 63 63 63 63 63 63 63 63 63 63   cccccccccccccccc
|    432: 63 63 63 63 63 63 63 63 63 63 63 63 63 63 63 63   cccccccccccccccc
|    448: 63 63 63 63 63 63 63 63 63 63 63 63 63 63 63 63   cccccccccccccccc
|    464: 63 63 63 63 63 63 63 63 63 63 63 63 63 63 63 63   cccccccccccccccc
|    480: 63 63 63 63 63 63 63 63 63 63 63 63 63 63 63 63   cccccccccccccccc
|    496: 63 63 63 63 63 63 63 63 63 63 63 63 63 63 63 63   cccccccccccccccc
|    512: 63 63 63 63 63 63 63 63 63 63 63 63 63 63 63 63   cccccccccccccccc
|    528: 63 63 63 63 63 63 63 63 63 63 63 63 63 63 63 63   cccccccccccccccc
|    544: 63 63 63 63 63 63 63 63 63 63 63 63 63 63 63 63   cccccccccccccccc
|    560: 63 63 63 63 63 63 63 63 63 63 63 63 63 63 63 63   cccccccccccccccc
|    576: 63 63 63 63 63 63 63 63 63 63 63 63 63 63 63 63   cccccccccccccccc
|    592: 63 63 63 63 63 63 63 63 63 63 63 63 63 63 63 63   cccccccccccccccc
|    608: 63 63 63 63 63 63 63 63 63 63 63 63 63 63 63 63   cccccccccccccccc
|    624: 63 63 63 63 63 63 63 63 63 63 63 63 63 63 63 63   cccccccccccccccc
|    640: 63 63 63 63 63 63 63 63 63 63 63 63 63 63 63 63   cccccccccccccccc
|    656: 63 63 63 63 63 63 63 63 63 63 63 63 63 63 63 63   cccccccccccccccc
|    672: 63 63 63 63 63 63 63 63 63 63 63 63 63 63 63 63   cccccccccccccccc
|    688: 63 63 63 63 63 63 63 63 63 63 63 63 63 63 63 63   cccccccccccccccc
|    704: 63 63 63 63 63 63 63 63 63 63 63 63 63 63 63 63   cccccccccccccccc
|    720: 63 63 63 63 63 63 63 63 63 63 63 63 63 63 63 63   cccccccccccccccc
|    736: 63 63 63 63 63 63 63 63 63 63 63 63 63 63 63 63   cccccccccccccccc
|    752: 63 63 63 63 63 63 63 63 63 63 63 63 63 63 63 63   cccccccccccccccc
|    768: 63 63 63 63 63 63 63 63 63 63 63 63 63 63 63 63   cccccccccccccccc
|    784: 63 63 63 63 63 63 63 63 63 63 63 63 63 63 63 63   cccccccccccccccc
|    800: 63 63 63 63 63 63 63 63 63 63 63 63 63 63 63 63   cccccccccccccccc
|    816: 63 63 63 63 63 63 63 63 63 63 63 63 63 63 63 63   cccccccccccccccc
|    832: 63 63 63 63 63 63 63 63 63 63 63 63 63 63 63 63   cccccccccccccccc
|    848: 63 63 63 63 63 63 63 63 63 63 63 63 63 63 63 63   cccccccccccccccc
|    864: 63 63 63 63 63 63 63 63 63 63 63 63 63 63 63 63   cccccccccccccccc
|    880: 63 63 63 63 63 63 63 63 63 63 63 63 63 63 63 63   cccccccccccccccc
|    896: 63 63 63 63 63 63 63 63 63 63 63 63 63 63 63 63   cccccccccccccccc
|    912: 63 63 63 63 63 63 63 63 63 63 63 63 63 63 63 63   cccccccccccccccc
|    928: 63 63 63 63 63 63 63 63 63 63 63 63 63 63 63 63   cccccccccccccccc
|    944: 63 63 63 63 63 63 63 63 63 63 63 63 63 63 63 63   cccccccccccccccc
|    960: 63 63 63 63 63 63 63 63 63 63 63 63 63 63 63 63   cccccccccccccccc
|    976: 63 63 63 63 63 63 63 63 63 63 63 63 63 63 63 63   cccccccccccccccc
|    992: 63 63 63 63 63 63 63 63 63 63 63 63 63 63 63 63   cccccccccccccccc
|   1008: 63 63 63 63 63 63 63 63 63 63 63 63 63 63 63 63   cccccccccccccccc
|   1024: 63 63 63 63 63 63 63 63 63 63 63 63 63 63 63 63   cccccccccccccccc
|   1040: 63 63 63 63 63 63 63 63 63 63 63 63 63 63 63 63   cccccccccccccccc
|   1056: 63 63 63 63 63 63 63 63 63 63 63 63 63 63 63 63   cccccccccccccccc
|   1072: 63 63 63 63 63 63 63 63 63 63 63 63 63 63 63 63   cccccccccccccccc
|   1088: 63 63 63 63 63 63 63 63 63 63 63 63 63 63 63 63   cccccccccccccccc
|   1104: 63 63 63 63 63 63 63 63 63 63 63 63 63 63 63 63   cccccccccccccccc
|   1120: 63 63 63 63 63 63 63 63 63 63 63 63 63 63 63 63   cccccccccccccccc
|   1136: 63 63 63 63 63 63 63 63 63 63 63 63 63 63 63 63   cccccccccccccccc
|   1152: 63 63 63 63 63 63 63 63 63 63 63 63 63 63 63 63   cccccccccccccccc
|   1168: 63 63 63 63 63 63 63 63 63 63 63 63 63 63 63 63   cccccccccccccccc
|   1184: 63 63 63 63 63 63 63 63 63 63 63 63 63 63 63 63   cccccccccccccccc
|   1200: 63 63 63 63 63 63 63 63 63 63 63 63 63 63 63 63   cccccccccccccccc
|   1216: 63 63 63 63 63 63 63 63 63 63 63 63 63 63 63 63   cccccccccccccccc
|   1232: 63 63 63 63 63 63 63 63 63 63 63 63 63 63 63 63   cccccccccccccccc
|   1248: 63 63 63 63 63 63 63 63 63 63 63 63 63 63 63 63   cccccccccccccccc
|   1264: 63 63 63 63 63 63 63 63 63 63 63 63 63 63 63 63   cccccccccccccccc
|   1280: 63 63 63 63 63 63 63 63 63 63 63 63 63 63 63 63   cccccccccccccccc
|   1296: 63 63 63 63 63 63 63 63 63 63 63 63 63 63 63 63   cccccccccccccccc
|   1312: 63 63 63 63 63 63 63 63 63 63 63 63 63 63 63 63   cccccccccccccccc
|   1328: 63 63 63 63 63 63 63 63 63 63 63 63 63 63 63 63   cccccccccccccccc
|   1344: 63 63 63 63 63 63 63 63 63 63 63 63 63 63 63 63   cccccccccccccccc
|   1360: 63 63 63 63 63 63 63 63 63 63 63 63 63 63 63 63   cccccccccccccccc
|   1376: 63 63 63 63 63 63 63 63 63 63 63 63 63 63 63 63   cccccccccccccccc
|   1392: 63 63 63 63 63 63 63 63 63 63 63 63 63 63 63 63   cccccccccccccccc
|   1408: 63 63 63 63 63 63 63 63 63 63 63 63 63 63 63 63   cccccccccccccccc
|   1424: 63 63 63 63 63 63 63 63 63 63 63 63 63 63 63 63   cccccccccccccccc
|   1440: 63 63 63 63 63 63 63 63 63 63 63 63 63 63 63 63   cccccccccccccccc
|   1456: 63 63 63 63 63 63 63 63 63 63 63 63 63 63 63 63   cccccccccccccccc
|   1472: 63 63 63 63 63 63 63 63 63 63 63 63 63 63 63 63   cccccccccccccccc
|   1488: 63 63 63 63 63 63 63 63 63 63 63 63 63 63 63 63   cccccccccccccccc
|   1504: 63 63 63 63 63 63 63 63 63 63 63 63 63 63 63 63   cccccccccccccccc
|   1520: 63 63 63 63 63 63 63 63 63 63 63 63 63 63 63 63   cccccccccccccccc
|   1536: 63 63 63 63 63 63 63 63 63 63 63 63 63 63 63 63   cccccccccccccccc
|   1552: 63 63 63 63 63 63 63 63 63 63 63 63 63 63 63 63   cccccccccccccccc
|   1568: 63 63 63 63 63 63 63 63 63 63 63 63 63 63 63 63   cccccccccccccccc
|   1584: 63 63 63 63 63 63 63 63 63 63 63 63 63 63 63 63   cccccccccccccccc
|   1600: 63 63 63 63 63 63 63 63 63 63 63 63 63 63 63 63   cccccccccccccccc
|   1616: 63 63 63 63 63 63 63 63 63 63 63 63 63 63 63 63   cccccccccccccccc
|   1632: 63 63 63 63 63 63 63 63 63 63 63 63 63 63 63 63   cccccccccccccccc
|   1648: 63 63 63 63 63 63 63 63 63 63 63 63 63 63 63 63   cccccccccccccccc
|   1664: 63 63 63 63 63 63 63 63 63 63 63 63 63 63 63 63   cccccccccccccccc
|   1680: 63 63 63 63 63 63 63 63 63 63 63 63 63 63 63 63   cccccccccccccccc
|   1696: 63 63 63 63 63 63 63 63 63 63 63 63 63 63 63 63   cccccccccccccccc
|   1712: 63 63 63 63 63 63 63 63 63 63 63 63 63 63 63 63   cccccccccccccccc
|   1728: 63 63 63 63 63 63 63 63 63 63 63 63 63 63 63 63   cccccccccccccccc
|   1744: 63 63 63 63 63 63 63 63 63 63 63 63 63 63 63 63   cccccccccccccccc
|   1760: 63 63 63 63 63 63 63 63 63 63 63 63 63 63 63 63   cccccccccccccccc
|   1776: 63 63 63 63 63 63 63 63 63 63 63 63 63 63 63 63   cccccccccccccccc
|   1792: 63 63 63 63 63 63 63 63 63 63 63 63 63 63 63 63   cccccccccccccccc
|   1808: 63 63 63 63 63 63 63 63 63 63 63 63 63 63 63 63   cccccccccccccccc
|   1824: 63 63 63 63 63 63 63 63 63 63 63 63 63 63 63 63   cccccccccccccccc
|   1840: 63 63 63 63 63 63 63 63 63 63 63 63 63 63 63 63   cccccccccccccccc
|   1856: 63 63 63 63 63 63 63 63 63 63 63 63 63 63 63 63   cccccccccccccccc
|   1872: 63 63 63 63 63 63 63 63 63 63 63 63 63 63 63 63   cccccccccccccccc
|   1888: 63 63 63 63 63 63 63 63 63 63 63 63 63 63 63 63   cccccccccccccccc
|   1904: 63 63 63 63 63 63 63 63 63 63 63 63 63 63 63 63   cccccccccccccccc
|   1920: 63 63 63 63 63 63 63 63 63 63 63 63 63 63 63 63   cccccccccccccccc
|   1936: 63 63 63 63 63 63 63 63 63 63 63 63 63 63 63 63   cccccccccccccccc
|   1952: 63 63 63 63 63 63 63 63 63 63 63 63 63 63 63 63   cccccccccccccccc
|   1968: 63 63 63 63 63 63 63 63 63 63 63 63 63 63 63 63   cccccccccccccccc
|   1984: 63 63 63 63 63 63 63 63 63 63 63 63 63 63 63 63   cccccccccccccccc
|   2000: 63 63 63 63 63 63 63 63 63 63 63 63 63 63 63 63   cccccccccccccccc
|   2016: 63 63 63 63 63 63 63 63 63 63 63 63 63 63 63 63   cccccccccccccccc
|   2032: 63 63 63 63 63 63 63 63 63 63 63 63 63 63 63 63   cccccccccccccccc
|   2048: 63 63 63 63 63 63 63 63 63 63 63 63 63 63 63 63   cccccccccccccccc
|   2064: 63 63 63 63 63 63 63 63 63 63 63 63 63 63 63 63   cccccccccccccccc
|   2080: 63 63 63 63 63 63 63 63 63 63 63 63 63 63 63 63   cccccccccccccccc
|   2096: 63 63 63 63 63 63 63 63 63 63 63 63 63 63 63 63   cccccccccccccccc
|   2112: 63 63 63 63 63 63 63 63 63 63 63 63 63 63 63 63   cccccccccccccccc
|   2128: 63 63 63 63 63 63 63 63 63 63 63 63 63 63 63 63   cccccccccccccccc
|   2144: 63 63 63 63 63 63 63 63 63 63 63 63 63 63 63 63   cccccccccccccccc
|   2160: 63 63 63 63 63 63 63 63 63 63 63 63 63 63 63 63   cccccccccccccccc
|   2176: 63 63 63 63 63 63 63 63 63 63 63 63 63 63 63 63   cccccccccccccccc
|   2192: 63 63 63 63 63 63 63 63 63 63 63 63 63 63 63 63   cccccccccccccccc
|   2208: 63 63 63 63 63 63 63 63 63 63 63 63 63 63 63 63   cccccccccccccccc
|   2224: 63 63 63 63 63 63 63 63 63 63 63 63 63 63 63 63   cccccccccccccccc
|   2240: 63 63 63 63 63 63 63 63 63 63 63 63 63 63 63 63   cccccccccccccccc
|   2256: 63 63 63 63 63 63 63 63 63 63 63 63 63 63 63 63   cccccccccccccccc
|   2272: 63 63 63 63 63 63 63 63 63 63 63 63 63 63 63 63   cccccccccccccccc
|   2288: 63 63 63 63 63 63 63 63 63 63 63 63 63 63 63 63   cccccccccccccccc
|   2304: 63 63 63 63 63 63 63 63 63 63 63 63 63 63 63 63   cccccccccccccccc
|   2320: 63 63 63 63 63 63 63 63 63 63 63 63 63 63 63 63   cccccccccccccccc
|   2336: 63 63 63 63 63 63 63 63 63 63 63 63 63 63 63 63   cccccccccccccccc
|   2352: 63 63 63 63 63 63 63 63 63 63 63 63 63 63 63 63   cccccccccccccccc
|   2368: 63 63 63 63 63 63 63 63 63 63 63 63 63 63 63 63   cccccccccccccccc
|   2384: 63 63 63 63 63 63 63 63 63 63 63 63 63 63 63 63   cccccccccccccccc
|   2400: 63 63 63 63 63 63 63 63 63 63 63 63 63 63 63 63   cccccccccccccccc
|   2416: 63 63 63 63 63 63 63 63 63 63 63 63 63 63 63 63   cccccccccccccccc
|   2432: 63 63 63 63 63 63 63 63 63 63 63 63 63 63 63 63   cccccccccccccccc
|   2448: 63 63 63 63 63 63 63 63 63 63 63 63 63 63 63 63   cccccccccccccccc
|   2464: 63 63 63 63 63 63 63 63 63 63 63 63 63 63 63 63   cccccccccccccccc
|   2480: 63 63 63 63 63 63 63 63 63 63 63 63 63 63 63 63   cccccccccccccccc
|   2496: 63 63 63 63 63 63 63 63 63 63 63 63 63 63 63 63   cccccccccccccccc
|   2512: 63 63 63 63 63 63 63 63 63 63 63 63 63 63 63 63   cccccccccccccccc
|   2528: 63 63 63 63 63 63 63 63 63 63 63 63 63 63 63 63   cccccccccccccccc
|   2544: 63 63 63 63 63 63 63 63 63 63 63 63 63 63 63 63   cccccccccccccccc
|   2560: 63 63 63 63 63 63 63 63 63 63 63 63 63 63 63 63   cccccccccccccccc
|   2576: 63 63 63 63 63 63 63 63 63 63 63 63 63 63 63 63   cccccccccccccccc
|   2592: 63 63 63 63 63 63 63 63 63 63 63 63 63 63 63 63   cccccccccccccccc
|   2608: 63 63 63 63 63 63 63 63 63 63 63 63 63 63 63 63   cccccccccccccccc
|   2624: 63 63 63 63 63 63 63 63 63 63 63 63 63 63 63 63   cccccccccccccccc
|   2640: 63 63 63 63 63 63 63 63 63 63 63 63 63 63 63 63   cccccccccccccccc
|   2656: 63 63 63 63 63 63 63 63 63 63 63 63 63 63 63 63   cccccccccccccccc
|   2672: 63 63 63 63 63 63 63 63 63 63 63 63 63 63 63 63   cccccccccccccccc
|   2688: 63 63 63 63 63 63 63 63 63 63 63 63 63 63 63 63   cccccccccccccccc
|   2704: 63 63 63 63 63 63 63 63 63 63 63 63 63 63 63 63   cccccccccccccccc
|   2720: 63 63 63 63 63 63 63 63 63 63 63 63 63 63 63 63   cccccccccccccccc
|   2736: 63 63 63 63 63 63 63 63 63 63 63 63 63 63 63 63   cccccccccccccccc
|   2752: 63 63 63 63 63 63 63 63 63 63 63 63 63 63 63 63   cccccccccccccccc
|   2768: 63 63 63 63 63 63 63 63 63 63 63 63 63 63 63 63   cccccccccccccccc
|   2784: 63 63 63 63 63 63 63 63 63 63 63 63 63 63 63 63   cccccccccccccccc
|   2800: 63 63 63 63 63 63 63 63 63 63 63 63 63 63 63 63   cccccccccccccccc
|   2816: 63 63 63 63 63 63 63 63 63 63 63 63 63 63 63 63   cccccccccccccccc
|   2832: 63 63 63 63 63 63 63 63 63 63 63 63 63 63 63 63   cccccccccccccccc
|   2848: 63 63 63 63 63 63 63 63 63 63 63 63 63 63 63 63   cccccccccccccccc
|   2864: 63 63 63 63 63 63 63 63 63 63 63 63 63 63 63 63   cccccccccccccccc
|   2880: 63 63 63 63 63 63 63 63 63 63 63 63 63 63 63 63   cccccccccccccccc
|   2896: 63 63 63 63 63 63 63 63 63 63 63 63 63 63 63 63   cccccccccccccccc
|   2912: 63 63 63 63 63 63 63 63 63 63 63 63 63 63 63 63   cccccccccccccccc
|   2928: 63 63 63 63 63 63 63 63 63 63 63 63 63 63 63 63   cccccccccccccccc
|   2944: 63 63 63 63 63 63 63 63 63 63 63 63 63 63 63 63   cccccccccccccccc
|   2960: 63 63 63 63 63 63 63 63 63 63 63 63 63 63 63 63   cccccccccccccccc
|   2976: 63 63 63 63 63 63 63 63 63 63 63 63 63 63 63 63   cccccccccccccccc
|   2992: 63 63 63 63 63 63 63 63 63 63 63 63 63 63 63 63   cccccccccccccccc
|   3008: 63 63 63 63 63 63 63 63 63 63 63 63 63 63 63 63   cccccccccccccccc
|   3024: 63 63 63 63 63 63 63 63 63 63 63 63 63 63 63 63   cccccccccccccccc
|   3040: 63 63 63 63 63 63 63 63 63 63 63 63 63 63 63 63   cccccccccccccccc
|   3056: 63 63 63 63 63 63 63 63 63 63 63 63 63 63 63 63   cccccccccccccccc
|   3072: 63 63 63 63 63 63 63 63 63 63 63 63 63 63 63 63   cccccccccccccccc
|   3088: 63 63 63 63 63 63 63 63 63 63 63 63 63 63 63 63   cccccccccccccccc
|   3104: 63 63 63 63 63 63 63 63 63 63 63 63 63 63 63 63   cccccccccccccccc
|   3120: 63 63 63 63 63 63 63 63 63 63 63 63 63 63 63 63   cccccccccccccccc
|   3136: 63 63 63 63 63 63 63 63 63 63 63 63 63 63 63 63   cccccccccccccccc
|   3152: 63 63 63 63 63 63 63 63 63 63 63 63 63 63 63 63   cccccccccccccccc
|   3168: 63 63 63 63 63 63 63 63 63 63 63 63 63 63 63 63   cccccccccccccccc
|   3184: 63 63 63 63 63 63 63 63 63 63 63 63 63 63 63 63   cccccccccccccccc
|   3200: 63 63 63 63 63 63 63 63 63 63 63 63 63 63 63 63   cccccccccccccccc
|   3216: 63 63 63 63 63 63 63 63 63 63 63 63 63 63 63 63   cccccccccccccccc
|   3232: 63 63 63 63 63 63 63 63 63 63 63 63 63 63 63 63   cccccccccccccccc
|   3248: 63 63 63 63 63 63 63 63 63 63 63 63 63 63 63 63   cccccccccccccccc
|   3264: 63 63 63 63 63 63 63 63 63 63 63 63 63 63 63 63   cccccccccccccccc
|   3280: 63 63 63 63 63 63 63 63 63 63 63 63 63 63 63 63   cccccccccccccccc
|   3296: 63 63 63 63 63 63 63 63 63 63 63 63 63 63 63 63   cccccccccccccccc
|   3312: 63 63 63 63 63 63 63 63 63 63 63 63 63 63 63 63   cccccccccccccccc
|   3328: 63 63 63 63 63 63 63 63 63 63 63 63 63 63 63 63   cccccccccccccccc
|   3344: 63 63 63 63 63 63 63 63 63 63 63 63 63 63 63 63   cccccccccccccccc
|   3360: 63 63 63 63 63 63 63 63 63 63 63 63 63 63 63 63   cccccccccccccccc
|   3376: 63 63 63 63 63 63 63 63 63 63 63 63 63 63 63 63   cccccccccccccccc
|   3392: 63 63 63 63 63 63 63 63 63 63 63 63 63 63 63 63   cccccccccccccccc
|   3408: 63 63 63 63 63 63 63 63 63 63 63 63 63 63 63 63   cccccccccccccccc
|   3424: 63 63 63 63 63 63 63 63 63 63 63 63 63 63 63 63   cccccccccccccccc
|   3440: 63 63 63 63 63 63 63 63 63 63 63 63 63 63 63 63   cccccccccccccccc
|   3456: 63 63 63 63 63 63 63 63 63 63 63 63 63 63 63 63   cccccccccccccccc
|   3472: 63 63 63 63 63 63 63 63 63 63 63 63 63 63 63 63   cccccccccccccccc
|   3488: 63 63 63 63 63 63 63 63 63 63 63 63 63 63 63 63   cccccccccccccccc
|   3504: 63 63 63 63 63 63 63 63 63 63 63 63 63 63 63 63   cccccccccccccccc
|   3520: 63 63 63 63 63 63 63 63 63 63 63 63 63 63 63 63   cccccccccccccccc
|   3536: 63 63 63 63 63 63 63 63 63 63 63 63 63 63 63 63   cccccccccccccccc
|   3552: 63 63 63 63 63 63 63 63 63 63 63 63 63 63 63 63   cccccccccccccccc
|   3568: 63 63 63 63 63 63 63 63 63 63 63 63 63 63 63 63   cccccccccccccccc
|   3584: 63 63 63 63 63 63 63 63 63 63 63 63 63 63 63 63   cccccccccccccccc
|   3600: 63 63 63 63 63 63 63 63 63 63 63 63 63 63 63 63   cccccccccccccccc
|   3616: 63 63 63 63 63 63 63 63 63 63 63 63 63 63 63 63   cccccccccccccccc
|   3632: 63 63 63 63 63 63 63 63 63 63 63 63 63 63 63 63   cccccccccccccccc
|   3648: 63 63 63 63 63 63 63 63 63 63 63 63 63 63 63 63   cccccccccccccccc
|   3664: 63 63 63 63 63 63 63 63 63 63 63 63 63 63 63 63   cccccccccccccccc
|   3680: 63 63 63 63 63 63 63 63 63 63 63 63 63 63 63 63   cccccccccccccccc
|   3696: 63 63 63 63 63 63 63 63 63 63 63 63 63 63 63 63   cccccccccccccccc
|   3712: 63 63 63 63 63 63 63 63 63 63 63 63 63 63 63 63   cccccccccccccccc
|   3728: 63 63 63 63 63 63 63 63 63 63 63 63 63 63 63 63   cccccccccccccccc
|   3744: 63 63 63 63 63 63 63 63 63 63 63 63 63 63 63 63   cccccccccccccccc
|   3760: 63 63 63 63 63 63 63 63 63 63 63 63 63 63 63 63   cccccccccccccccc
|   3776: 63 63 63 63 63 63 63 63 63 63 63 63 63 63 63 63   cccccccccccccccc
|   3792: 63 63 63 63 63 63 63 63 63 63 63 63 63 63 63 63   cccccccccccccccc
|   3808: 63 63 63 63 63 63 63 63 63 63 63 63 63 63 63 63   cccccccccccccccc
|   3824: 63 63 63 63 63 63 63 63 63 63 63 63 63 63 63 63   cccccccccccccccc
|   3840: 63 63 63 63 63 63 63 63 63 63 63 63 63 63 63 63   cccccccccccccccc
|   3856: 63 63 63 63 63 63 63 63 63 63 63 63 63 63 63 63   cccccccccccccccc
|   3872: 63 63 63 63 63 63 63 63 63 63 63 63 63 63 63 63   cccccccccccccccc
|   3888: 63 63 63 63 63 63 63 63 63 63 63 63 63 63 63 63   cccccccccccccccc
|   3904: 63 63 63 63 63 63 63 63 63 63 63 63 63 63 63 63   cccccccccccccccc
|   3920: 63 63 63 63 63 63 63 63 63 63 63 63 63 63 63 63   cccccccccccccccc
|   3936: 63 63 63 63 63 63 63 63 63 63 63 63 63 63 63 63   cccccccccccccccc
|   3952: 63 63 63 63 63 63 63 63 63 63 63 63 63 63 63 63   cccccccccccccccc
|   3968: 63 63 63 63 63 63 63 63 63 63 63 63 63 63 63 63   cccccccccccccccc
|   3984: 63 63 63 63 63 63 63 63 63 63 63 63 63 63 63 63   cccccccccccccccc
|   4000: 63 63 63 63 63 63 63 63 63 63 63 63 63 63 63 63   cccccccccccccccc
|   4016: 63 63 63 63 63 63 63 63 63 63 63 63 63 63 63 63   cccccccccccccccc
|   4032: 63 63 63 63 63 63 63 63 63 63 63 63 63 63 63 63   cccccccccccccccc
|   4048: 63 63 63 63 63 63 63 63 63 63 63 63 63 63 63 63   cccccccccccccccc
|   4064: 63 63 63 63 63 63 63 63 63 63 63 63 63 63 63 63   cccccccccccccccc
|   4080: 63 63 63 63 63 63 63 63 63 63 63 63 63 63 63 64   cccccccccccccccd
| page 9 offset 32768
|      0: 0d 0f d6 00 03 00 22 00 0f f9 0f e6 00 22 00 22   ................
|     16: 00 00 00 00 00 00 00 00 00 00 00 00 00 00 00 9f   ................
|     32: 2f 88 9f 2c 8c 80 80 80 80 01 04 00 be 5c 00 00   /..,............
|     48: 0f a7 9f 21 30 63 63 63 63 63 63 63 63 63 63 63   ...!0ccccccccccc
|     64: 63 63 63 63 63 63 63 63 63 63 63 63 63 63 63 63   cccccccccccccccc
|     80: 63 63 63 63 63 63 63 63 63 63 63 63 63 63 63 63   cccccccccccccccc
|     96: 63 63 63 63 63 63 63 63 63 63 63 63 63 63 63 63   cccccccccccccccc
|    112: 63 63 63 63 63 63 63 63 63 63 63 63 63 63 63 63   cccccccccccccccc
|    128: 63 63 63 63 63 63 63 63 63 63 63 63 63 63 63 63   cccccccccccccccc
|    144: 63 63 63 63 63 63 63 63 63 63 63 63 63 63 63 63   cccccccccccccccc
|    160: 63 63 63 63 63 63 63 63 63 63 63 63 63 63 63 63   cccccccccccccccc
|    176: 63 63 63 63 63 63 63 63 63 63 63 63 63 63 63 63   cccccccccccccccc
|    192: 63 63 63 63 63 63 63 63 63 63 63 63 63 63 63 63   cccccccccccccccc
|    208: 63 63 63 63 63 63 63 63 63 63 63 63 63 63 63 63   cccccccccccccccc
|    224: 63 63 63 63 63 63 63 63 63 63 63 63 63 63 63 63   cccccccccccccccc
|    240: 63 63 63 63 63 63 63 63 63 63 63 63 63 63 63 63   cccccccccccccccc
|    256: 63 63 63 63 63 63 63 63 63 63 63 63 63 63 63 63   cccccccccccccccc
|    272: 63 63 63 63 63 63 63 63 63 63 63 63 63 63 63 63   cccccccccccccccc
|    288: 63 63 63 63 63 63 63 63 63 63 63 63 63 63 63 63   cccccccccccccccc
|    304: 63 63 63 63 63 63 63 63 63 63 63 63 63 63 63 63   cccccccccccccccc
|    320: 63 63 63 63 63 63 63 63 63 63 63 63 63 63 63 63   cccccccccccccccc
|    336: 63 63 63 63 63 63 63 63 63 63 63 63 63 63 63 63   cccccccccccccccc
|    352: 63 63 63 63 63 63 63 63 63 63 63 63 63 63 63 63   cccccccccccccccc
|    368: 63 63 63 63 63 63 63 63 63 63 63 63 63 63 63 63   cccccccccccccccc
|    384: 63 63 63 63 63 63 63 63 63 63 63 63 63 63 63 63   cccccccccccccccc
|    400: 63 63 63 63 63 63 63 63 63 63 63 63 63 63 63 63   cccccccccccccccc
|    416: 63 63 63 63 63 63 63 63 63 63 63 63 63 63 63 63   cccccccccccccccc
|    432: 63 63 63 63 63 63 63 63 63 63 63 63 63 63 63 63   cccccccccccccccc
|    448: 63 63 63 63 63 63 63 63 63 63 63 63 63 63 63 63   cccccccccccccccc
|    464: 63 63 63 63 63 63 63 63 63 63 63 63 63 63 63 63   cccccccccccccccc
|    480: 63 63 63 63 63 63 63 63 63 63 63 63 63 63 63 63   cccccccccccccccc
|    496: 63 63 63 63 63 63 63 63 63 63 63 63 63 63 63 63   cccccccccccccccc
|    512: 63 63 63 63 63 63 63 63 63 63 63 63 63 63 63 63   cccccccccccccccc
|    528: 63 63 63 63 63 63 63 63 63 63 63 63 63 63 63 63   cccccccccccccccc
|    544: 63 63 63 63 63 63 63 63 63 63 63 63 63 63 63 63   cccccccccccccccc
|    560: 63 63 63 63 63 63 63 63 63 63 63 63 63 63 63 63   cccccccccccccccc
|    576: 63 63 63 63 63 63 63 63 63 63 63 63 63 63 63 63   cccccccccccccccc
|    592: 63 63 63 63 63 63 63 63 63 63 63 63 63 63 63 63   cccccccccccccccc
|    608: 63 63 63 63 63 63 63 63 63 63 63 63 63 63 63 63   cccccccccccccccc
|    624: 63 63 63 63 63 63 63 63 63 63 63 63 63 63 63 63   cccccccccccccccc
|    640: 63 63 63 63 63 63 63 63 63 63 63 63 63 63 63 63   cccccccccccccccc
|    656: 63 63 63 63 63 63 63 63 63 63 63 63 63 63 63 63   cccccccccccccccc
|    672: 63 63 63 63 63 63 63 63 63 63 63 63 63 63 63 63   cccccccccccccccc
|    688: 63 63 63 63 63 63 63 63 63 63 63 63 63 63 63 63   cccccccccccccccc
|    704: 63 63 63 63 63 63 63 63 63 63 63 63 63 63 63 63   cccccccccccccccc
|    720: 63 63 63 63 63 63 63 63 63 63 63 63 63 63 63 63   cccccccccccccccc
|    736: 63 63 63 63 63 63 63 63 63 63 63 63 63 63 63 63   cccccccccccccccc
|    752: 63 63 63 63 63 63 63 63 63 63 63 63 63 63 63 63   cccccccccccccccc
|    768: 63 63 63 63 63 63 63 63 63 63 63 63 63 63 63 63   cccccccccccccccc
|    784: 63 63 63 63 63 63 63 63 63 63 63 63 63 63 63 63   cccccccccccccccc
|    800: 63 63 63 63 63 63 63 63 63 63 63 63 63 63 63 63   cccccccccccccccc
|    816: 63 63 63 63 63 63 63 63 63 63 63 63 63 63 63 63   cccccccccccccccc
|    832: 63 63 63 63 63 63 63 63 63 63 63 63 63 63 63 63   cccccccccccccccc
|    848: 63 63 63 63 63 63 63 63 63 63 63 63 63 63 63 63   cccccccccccccccc
|    864: 63 63 63 63 63 63 63 63 63 63 63 63 63 63 63 63   cccccccccccccccc
|    880: 63 63 63 63 63 63 63 63 63 63 63 63 63 63 63 63   cccccccccccccccc
|    896: 63 63 63 63 63 63 63 63 63 63 63 63 63 63 63 63   cccccccccccccccc
|    912: 63 63 63 63 63 63 63 63 63 63 63 63 63 63 63 63   cccccccccccccccc
|    928: 63 63 63 63 63 63 63 63 63 63 63 63 63 63 63 63   cccccccccccccccc
|    944: 63 63 63 63 63 63 63 63 63 63 63 63 63 63 63 63   cccccccccccccccc
|    960: 63 63 63 63 63 63 63 63 63 63 63 63 63 63 63 63   cccccccccccccccc
|    976: 63 63 63 63 63 63 63 63 63 63 63 63 63 63 63 63   cccccccccccccccc
|    992: 63 63 63 63 63 63 63 63 63 63 63 63 63 63 63 63   cccccccccccccccc
|   1008: 63 63 63 63 63 63 63 63 63 63 63 63 63 63 63 63   cccccccccccccccc
|   1024: 63 63 63 63 63 63 63 63 63 63 63 63 63 63 63 63   cccccccccccccccc
|   1040: 63 63 63 63 63 63 63 63 63 63 63 63 63 63 63 63   cccccccccccccccc
|   1056: 63 63 63 63 63 63 63 63 63 63 63 63 63 63 63 63   cccccccccccccccc
|   1072: 63 63 63 63 63 63 63 63 63 63 63 63 63 63 63 63   cccccccccccccccc
|   1088: 63 63 63 63 63 63 63 63 63 63 63 63 63 63 63 63   cccccccccccccccc
|   1104: 63 63 63 63 63 63 63 63 63 63 63 63 63 63 63 63   cccccccccccccccc
|   1120: 63 63 63 63 63 63 63 63 63 63 63 63 63 63 63 63   cccccccccccccccc
|   1136: 63 63 63 63 63 63 63 63 63 63 63 63 63 63 63 63   cccccccccccccccc
|   1152: 63 63 63 63 63 63 63 63 63 63 63 63 63 63 63 63   cccccccccccccccc
|   1168: 63 63 63 63 63 63 63 63 63 63 63 63 63 63 63 63   cccccccccccccccc
|   1184: 63 63 63 63 63 63 63 63 63 63 63 63 63 63 63 63   cccccccccccccccc
|   1200: 63 63 63 63 63 63 63 63 63 63 63 63 63 63 63 63   cccccccccccccccc
|   1216: 63 63 63 63 63 63 63 63 63 63 63 63 63 63 63 63   cccccccccccccccc
|   1232: 63 63 63 63 63 63 63 63 63 63 63 63 63 63 63 63   cccccccccccccccc
|   1248: 63 63 63 63 63 63 63 63 63 63 63 63 63 63 63 63   cccccccccccccccc
|   1264: 63 63 63 63 63 63 63 63 63 63 63 63 63 63 63 63   cccccccccccccccc
|   1280: 63 63 63 63 63 63 63 63 63 63 63 63 63 63 63 63   cccccccccccccccc
|   1296: 63 63 63 63 63 63 63 63 63 63 63 63 63 63 63 63   cccccccccccccccc
|   1312: 63 63 63 63 63 63 63 63 63 63 63 63 63 63 63 63   cccccccccccccccc
|   1328: 63 63 63 63 63 63 63 63 63 63 63 63 63 63 63 63   cccccccccccccccc
|   1344: 63 63 63 63 63 63 63 63 63 63 63 63 63 63 63 63   cccccccccccccccc
|   1360: 63 63 63 63 63 63 63 63 63 63 63 63 63 63 63 63   cccccccccccccccc
|   1376: 63 63 63 63 63 63 63 63 63 63 63 63 63 63 63 63   cccccccccccccccc
|   1392: 63 63 63 63 63 63 63 63 63 63 63 63 63 63 63 63   cccccccccccccccc
|   1408: 63 63 63 63 63 63 63 63 63 63 63 63 63 63 63 63   cccccccccccccccc
|   1424: 63 63 63 63 63 63 63 63 63 63 63 63 63 63 63 63   cccccccccccccccc
|   1440: 63 63 63 63 63 63 63 63 63 63 63 63 63 63 63 63   cccccccccccccccc
|   1456: 63 63 63 63 63 63 63 63 63 63 63 63 63 63 63 63   cccccccccccccccc
|   1472: 63 63 63 63 63 63 63 63 63 63 63 63 63 63 63 63   cccccccccccccccc
|   1488: 63 63 63 63 63 63 63 63 63 63 63 63 63 63 63 63   cccccccccccccccc
|   1504: 63 63 63 63 63 63 63 63 63 63 63 63 63 63 63 63   cccccccccccccccc
|   1520: 63 63 63 63 63 63 63 63 63 63 63 63 63 63 63 63   cccccccccccccccc
|   1536: 63 63 63 63 63 63 63 63 63 63 63 63 63 63 63 63   cccccccccccccccc
|   1552: 63 63 63 63 63 63 63 63 63 63 63 63 63 63 63 63   cccccccccccccccc
|   1568: 63 63 63 63 63 63 63 63 63 63 63 63 63 63 63 63   cccccccccccccccc
|   1584: 63 63 63 63 63 63 63 63 63 63 63 63 63 63 63 63   cccccccccccccccc
|   1600: 63 63 63 63 63 63 63 63 63 63 63 63 63 63 63 63   cccccccccccccccc
|   1616: 63 63 63 63 63 63 63 63 63 63 63 63 63 63 63 63   cccccccccccccccc
|   1632: 63 63 63 63 63 63 63 63 63 63 63 63 63 63 63 63   cccccccccccccccc
|   1648: 63 63 63 63 63 63 63 63 63 63 63 63 63 63 63 63   cccccccccccccccc
|   1664: 63 63 63 63 63 63 63 63 63 63 63 63 63 63 63 63   cccccccccccccccc
|   1680: 63 63 63 63 63 63 63 63 63 63 63 63 63 63 63 63   cccccccccccccccc
|   1696: 63 63 63 63 63 63 63 63 63 63 63 63 63 63 63 63   cccccccccccccccc
|   1712: 63 63 63 63 63 63 63 63 63 63 63 63 63 63 63 63   cccccccccccccccc
|   1728: 63 63 63 63 63 63 63 63 63 63 63 63 63 63 63 63   cccccccccccccccc
|   1744: 63 63 63 63 63 63 63 63 63 63 63 63 63 63 63 63   cccccccccccccccc
|   1760: 63 63 63 63 63 63 63 63 63 63 63 63 63 63 63 63   cccccccccccccccc
|   1776: 63 63 63 63 63 63 63 63 63 63 63 63 63 63 63 63   cccccccccccccccc
|   1792: 63 63 63 63 63 63 63 63 63 63 63 63 63 63 63 63   cccccccccccccccc
|   1808: 63 63 63 63 63 63 63 63 63 63 63 63 63 63 63 63   cccccccccccccccc
|   1824: 63 63 63 63 63 63 63 63 63 63 63 63 63 63 63 63   cccccccccccccccc
|   1840: 63 63 63 63 63 63 63 63 63 63 63 63 63 63 63 63   cccccccccccccccc
|   1856: 63 63 63 63 63 63 63 63 63 63 63 63 63 63 63 63   cccccccccccccccc
|   1872: 63 63 63 63 63 63 63 63 63 63 63 63 63 63 63 63   cccccccccccccccc
|   1888: 63 63 63 63 63 63 63 63 63 63 63 63 63 63 63 63   cccccccccccccccc
|   1904: 63 63 63 63 63 63 63 63 63 63 63 63 63 63 63 63   cccccccccccccccc
|   1920: 63 63 63 63 63 63 63 63 63 63 63 63 63 63 63 63   cccccccccccccccc
|   1936: 63 63 63 63 63 63 63 63 63 63 63 63 63 63 63 63   cccccccccccccccc
|   1952: 63 63 63 63 63 63 63 63 63 63 63 63 63 63 63 63   cccccccccccccccc
|   1968: 63 63 63 63 63 63 63 63 63 63 63 63 63 63 63 63   cccccccccccccccc
|   1984: 63 63 63 63 63 63 63 63 63 63 63 63 63 63 63 63   cccccccccccccccc
|   2000: 63 63 63 63 63 63 63 63 63 63 63 63 63 63 63 63   cccccccccccccccc
|   2016: 63 63 63 63 63 63 63 63 63 63 63 63 63 63 63 63   cccccccccccccccc
|   2032: 63 63 63 63 63 63 63 63 63 63 63 63 63 63 63 63   cccccccccccccccc
|   2048: 63 63 63 63 63 63 63 63 63 63 63 63 63 63 63 63   cccccccccccccccc
|   2064: 63 63 63 63 63 63 63 63 63 63 63 63 63 63 63 63   cccccccccccccccc
|   2080: 63 63 63 63 63 63 63 63 63 63 63 63 63 63 63 63   cccccccccccccccc
|   2096: 63 63 63 63 63 63 63 63 63 63 63 63 63 63 63 63   cccccccccccccccc
|   2112: 63 63 63 63 63 63 63 63 63 63 63 63 63 63 63 63   cccccccccccccccc
|   2128: 63 63 63 63 63 63 63 63 63 63 63 63 63 63 63 63   cccccccccccccccc
|   2144: 63 63 63 63 63 63 63 63 63 63 63 63 63 63 63 63   cccccccccccccccc
|   2160: 63 63 63 63 63 63 63 63 63 63 63 63 63 63 63 63   cccccccccccccccc
|   2176: 63 63 63 63 63 63 63 63 63 63 63 63 63 63 63 63   cccccccccccccccc
|   2192: 63 63 63 63 63 63 63 63 63 63 63 63 63 63 63 63   cccccccccccccccc
|   2208: 63 63 63 63 63 63 63 63 63 63 63 63 63 63 63 63   cccccccccccccccc
|   2224: 63 63 63 63 63 63 63 63 63 63 63 63 63 63 63 63   cccccccccccccccc
|   2240: 63 63 63 63 63 63 63 63 63 63 63 63 63 63 63 63   cccccccccccccccc
|   2256: 63 63 63 63 63 63 63 63 63 63 63 63 63 63 63 63   cccccccccccccccc
|   2272: 63 63 63 63 63 63 63 63 63 63 63 63 63 63 63 63   cccccccccccccccc
|   2288: 63 63 63 63 63 63 63 63 63 63 63 63 63 63 63 63   cccccccccccccccc
|   2304: 63 63 63 63 63 63 63 63 63 63 63 63 63 63 63 63   cccccccccccccccc
|   2320: 63 63 63 63 63 63 63 63 63 63 63 63 63 63 63 63   cccccccccccccccc
|   2336: 63 63 63 63 63 63 63 63 63 63 63 63 63 63 63 63   cccccccccccccccc
|   2352: 63 63 63 63 63 63 63 63 63 63 63 63 63 63 63 63   cccccccccccccccc
|   2368: 63 63 63 63 63 63 63 63 63 63 63 63 63 63 63 63   cccccccccccccccc
|   2384: 63 63 63 63 63 63 63 63 63 63 63 63 63 63 63 63   cccccccccccccccc
|   2400: 63 63 63 63 63 63 63 63 63 63 63 63 63 63 63 63   cccccccccccccccc
|   2416: 63 63 63 63 63 63 63 63 63 63 63 63 63 63 63 63   cccccccccccccccc
|   2432: 63 63 63 63 63 63 63 63 63 63 63 63 63 63 63 63   cccccccccccccccc
|   2448: 63 63 63 63 63 63 63 63 63 63 63 63 63 63 63 63   cccccccccccccccc
|   2464: 63 63 63 63 63 63 63 63 63 63 63 63 63 63 63 63   cccccccccccccccc
|   2480: 63 63 63 63 63 63 63 63 63 63 63 63 63 63 63 63   cccccccccccccccc
|   2496: 63 63 63 63 63 63 63 63 63 63 63 63 63 63 63 63   cccccccccccccccc
|   2512: 63 63 63 63 63 63 63 63 63 63 63 63 63 63 63 63   cccccccccccccccc
|   2528: 63 63 63 63 63 63 63 63 63 63 63 63 63 63 63 63   cccccccccccccccc
|   2544: 63 63 63 63 63 63 63 63 63 63 63 63 63 63 63 63   cccccccccccccccc
|   2560: 63 63 63 63 63 63 63 63 63 63 63 63 63 63 63 63   cccccccccccccccc
|   2576: 63 63 63 63 63 63 63 63 63 63 63 63 63 63 63 63   cccccccccccccccc
|   2592: 63 63 63 63 63 63 63 63 63 63 63 63 63 63 63 63   cccccccccccccccc
|   2608: 63 63 63 63 63 63 63 63 63 63 63 63 63 63 63 63   cccccccccccccccc
|   2624: 63 63 63 63 63 63 63 63 63 63 63 63 63 63 63 63   cccccccccccccccc
|   2640: 63 63 63 63 63 63 63 63 63 63 63 63 63 63 63 63   cccccccccccccccc
|   2656: 63 63 63 63 63 63 63 63 63 63 63 63 63 63 63 63   cccccccccccccccc
|   2672: 63 63 63 63 63 63 63 63 63 63 63 63 63 63 63 63   cccccccccccccccc
|   2688: 63 63 63 63 63 63 63 63 63 63 63 63 63 63 63 63   cccccccccccccccc
|   2704: 63 63 63 63 63 63 63 63 63 63 63 63 63 63 63 63   cccccccccccccccc
|   2720: 63 63 63 63 63 63 63 63 63 63 63 63 63 63 63 63   cccccccccccccccc
|   2736: 63 63 63 63 63 63 63 63 63 63 63 63 63 63 63 63   cccccccccccccccc
|   2752: 63 63 63 63 63 63 63 63 63 63 63 63 63 63 63 63   cccccccccccccccc
|   2768: 63 63 63 63 63 63 63 63 63 63 63 63 63 63 63 63   cccccccccccccccc
|   2784: 63 63 63 63 63 63 63 63 63 63 63 63 63 63 63 63   cccccccccccccccc
|   2800: 63 63 63 63 63 63 63 63 63 63 63 63 63 63 63 63   cccccccccccccccc
|   2816: 63 63 63 63 63 63 63 63 63 63 63 63 63 63 63 63   cccccccccccccccc
|   2832: 63 63 63 63 63 63 63 63 63 63 63 63 63 63 63 63   cccccccccccccccc
|   2848: 63 63 63 63 63 63 63 63 63 63 63 63 63 63 63 63   cccccccccccccccc
|   2864: 63 63 63 63 63 63 63 63 63 63 63 63 63 63 63 63   cccccccccccccccc
|   2880: 63 63 63 63 63 63 63 63 63 63 63 63 63 63 63 63   cccccccccccccccc
|   2896: 63 63 63 63 63 63 63 63 63 63 63 63 63 63 63 63   cccccccccccccccc
|   2912: 63 63 63 63 63 63 63 63 63 63 63 63 63 63 63 63   cccccccccccccccc
|   2928: 63 63 63 63 63 63 63 63 63 63 63 63 63 63 63 63   cccccccccccccccc
|   2944: 63 63 63 63 63 63 63 63 63 63 63 63 63 63 63 63   cccccccccccccccc
|   2960: 63 63 63 63 63 63 63 63 63 63 63 63 63 63 63 63   cccccccccccccccc
|   2976: 63 63 63 63 63 63 63 63 63 63 63 63 63 63 63 63   cccccccccccccccc
|   2992: 63 63 63 63 63 63 63 63 63 63 63 63 63 63 63 63   cccccccccccccccc
|   3008: 63 63 63 63 63 63 63 63 63 63 63 63 63 63 63 63   cccccccccccccccc
|   3024: 63 63 63 63 63 63 63 63 63 63 63 63 63 63 63 63   cccccccccccccccc
|   3040: 63 63 63 63 63 63 63 63 63 63 63 63 63 63 63 63   cccccccccccccccc
|   3056: 63 63 63 63 63 63 63 63 63 63 63 63 63 63 63 63   cccccccccccccccc
|   3072: 63 63 63 63 63 63 63 63 63 63 63 63 63 63 63 63   cccccccccccccccc
|   3088: 63 63 63 63 63 63 63 63 63 63 63 63 63 63 63 63   cccccccccccccccc
|   3104: 63 63 63 63 63 63 63 63 63 63 63 63 63 63 63 63   cccccccccccccccc
|   3120: 63 63 63 63 63 63 63 63 63 63 63 63 63 63 63 63   cccccccccccccccc
|   3136: 63 63 63 63 63 63 63 63 63 63 63 63 63 63 63 63   cccccccccccccccc
|   3152: 63 63 63 63 63 63 63 63 63 63 63 63 63 63 63 63   cccccccccccccccc
|   3168: 63 63 63 63 63 63 63 63 63 63 63 63 63 63 63 63   cccccccccccccccc
|   3184: 63 63 63 63 63 63 63 63 63 63 63 63 63 63 63 63   cccccccccccccccc
|   3200: 63 63 63 63 63 63 63 63 63 63 63 63 63 63 63 63   cccccccccccccccc
|   3216: 63 63 63 63 63 63 63 63 63 63 63 63 63 63 63 63   cccccccccccccccc
|   3232: 63 63 63 63 63 63 63 63 63 63 63 63 63 63 63 63   cccccccccccccccc
|   3248: 63 63 63 63 63 63 63 63 63 63 63 63 63 63 63 63   cccccccccccccccc
|   3264: 63 63 63 63 63 63 63 63 63 63 63 63 63 63 63 63   cccccccccccccccc
|   3280: 63 63 63 63 63 63 63 63 63 63 63 63 63 63 63 63   cccccccccccccccc
|   3296: 63 63 63 63 63 63 63 63 63 63 63 63 63 63 63 63   cccccccccccccccc
|   3312: 63 63 63 63 63 63 63 63 63 63 63 63 63 63 63 63   cccccccccccccccc
|   3328: 63 63 63 63 63 63 63 63 63 63 63 63 63 63 63 63   cccccccccccccccc
|   3344: 63 63 63 63 63 63 63 63 63 63 63 63 63 63 63 63   cccccccccccccccc
|   3360: 63 63 63 63 63 63 63 63 63 63 63 63 63 63 63 63   cccccccccccccccc
|   3376: 63 63 63 63 63 63 63 63 63 63 63 63 63 63 63 63   cccccccccccccccc
|   3392: 63 63 63 63 63 63 63 63 63 63 63 63 63 63 63 63   cccccccccccccccc
|   3408: 63 63 63 63 63 63 63 63 63 63 63 63 63 63 63 63   cccccccccccccccc
|   3424: 63 63 63 63 63 63 63 63 63 63 63 63 63 63 63 63   cccccccccccccccc
|   3440: 63 63 63 63 63 63 63 63 63 63 63 63 63 63 63 63   cccccccccccccccc
|   3456: 63 63 63 63 63 63 63 63 63 63 63 63 63 63 63 63   cccccccccccccccc
|   3472: 63 63 63 63 63 63 63 63 63 63 63 63 63 63 63 63   cccccccccccccccc
|   3488: 63 63 63 63 63 63 63 63 63 63 63 63 63 63 63 63   cccccccccccccccc
|   3504: 63 63 63 63 63 63 63 63 63 63 63 63 63 63 63 63   cccccccccccccccc
|   3520: 63 63 63 63 63 63 63 63 63 63 63 63 63 63 63 63   cccccccccccccccc
|   3536: 63 63 63 63 63 63 63 63 63 63 63 63 63 63 63 63   cccccccccccccccc
|   3552: 63 63 63 63 63 63 63 63 63 63 63 63 63 63 63 63   cccccccccccccccc
|   3568: 63 63 63 63 63 63 63 63 63 63 63 63 63 63 63 63   cccccccccccccccc
|   3584: 63 63 63 63 63 63 63 63 63 63 63 63 63 63 63 63   cccccccccccccccc
|   3600: 63 63 63 63 63 63 63 63 63 63 63 63 63 63 63 63   cccccccccccccccc
|   3616: 63 63 63 63 63 63 63 63 63 63 63 63 63 63 63 63   cccccccccccccccc
|   3632: 63 63 63 63 63 63 63 63 63 63 63 63 63 63 63 63   cccccccccccccccc
|   3648: 63 63 63 63 63 63 63 63 63 63 63 63 63 63 63 63   cccccccccccccccc
|   3664: 63 63 63 63 63 63 63 63 63 63 63 63 63 63 63 63   cccccccccccccccc
|   3680: 63 63 63 63 63 63 63 63 63 63 63 63 63 63 63 63   cccccccccccccccc
|   3696: 63 63 63 63 63 63 63 63 63 63 63 63 63 63 63 63   cccccccccccccccc
|   3712: 63 63 63 63 63 63 63 63 63 63 63 63 63 63 63 63   cccccccccccccccc
|   3728: 63 63 63 63 63 63 63 63 63 63 63 63 63 63 63 63   cccccccccccccccc
|   3744: 63 63 63 63 63 63 63 63 63 63 63 63 63 63 63 63   cccccccccccccccc
|   3760: 63 63 63 63 63 63 63 63 63 63 63 63 63 63 63 63   cccccccccccccccc
|   3776: 63 63 63 63 63 63 63 63 63 63 63 63 63 63 63 63   cccccccccccccccc
|   3792: 63 63 63 63 63 63 63 63 63 63 63 63 63 63 63 63   cccccccccccccccc
|   3808: 63 63 63 63 63 63 63 63 63 63 63 63 63 63 63 63   cccccccccccccccc
|   3824: 63 63 63 63 63 63 63 63 63 63 63 63 63 63 63 63   cccccccccccccccc
|   3840: 63 63 63 63 63 63 63 63 63 63 63 63 63 63 63 63   cccccccccccccccc
|   3856: 63 63 63 63 63 63 63 63 63 63 63 63 63 63 63 63   cccccccccccccccc
|   3872: 63 63 63 63 63 63 63 63 63 63 63 63 63 63 63 63   cccccccccccccccc
|   3888: 63 63 63 63 63 63 63 63 63 63 63 63 63 63 63 63   cccccccccccccccc
|   3904: 63 63 63 63 63 63 63 63 63 63 63 63 63 63 63 63   cccccccccccccccc
|   3920: 63 63 63 63 63 63 63 63 63 63 63 63 63 63 63 63   cccccccccccccccc
|   3936: 63 63 63 63 63 63 63 63 63 63 63 63 63 63 63 63   cccccccccccccccc
|   3952: 63 63 63 63 63 63 63 63 63 63 63 63 63 63 63 63   cccccccccccccccc
|   3968: 63 63 63 63 63 63 63 63 63 63 63 63 63 63 63 63   cccccccccccccccc
|   3984: 63 63 63 63 63 63 63 63 63 63 63 63 63 63 63 63   cccccccccccccccc
|   4000: 63 63 63 63 63 63 63 63 63 63 63 63 63 63 63 63   cccccccccccccccc
|   4016: 63 63 63 63 63 63 63 63 63 63 63 63 63 63 63 63   cccccccccccccccc
|   4032: 63 63 63 63 63 63 63 63 63 63 63 63 63 63 63 63   cccccccccccccccc
|   4048: 63 63 63 63 63 04 00 00 00 10 80 80 02 03 00 16   ccccc...........
|   4064: 00 00 00 05 02 12 11 0a 03 00 28 00 00 00 01 02   ..........(.....
|   4080: 01 04 00 00 00 01 03 01 04 05 01 03 00 10 02 02   ................
| page 10 offset 36864
|      0: 0d 00 3a 00 03 00 18 03 00 29 00 48 00 18 00 00   ..:......).H....
|     16: 00 00 00 00 00 00 00 00 0a 8c 80 80 80 80 04 03   ................
|     32: 00 1a 00 04 00 07 02 02 02 0a 8c 80 80 80 80 02   ................
|     48: 03 00 1a 00 04 00 07 01 02 02 00 00 00 0e 80 80   ................
|     64: 02 03 00 16 00 00 00 05 9f 2d 8c 80 80 80 80 03   .........-......
|     80: 04 00 be 5e 00 00 0f a8 9f 22 30 63 63 63 63 63   ...^......0ccccc
|     96: 63 63 63 63 63 63 63 63 63 63 63 63 63 63 63 63   cccccccccccccccc
|    112: 63 63 63 63 63 63 63 63 63 63 63 63 63 63 63 63   cccccccccccccccc
|    128: 63 63 63 63 63 63 63 63 63 63 63 63 63 63 63 63   cccccccccccccccc
|    144: 63 63 63 63 63 63 63 63 63 63 63 63 63 63 63 63   cccccccccccccccc
|    160: 63 63 63 63 63 63 63 63 63 63 63 63 63 63 63 63   cccccccccccccccc
|    176: 63 63 63 63 63 63 63 63 63 63 63 63 63 63 63 63   cccccccccccccccc
|    192: 63 63 63 63 63 63 63 63 63 63 63 63 63 63 63 63   cccccccccccccccc
|    208: 63 63 63 87 ff ff ff 7f 63 63 63 63 63 63 63 63   ccc.....cccccccc
|    224: 63 63 63 63 63 63 63 63 63 63 63 63 63 63 63 63   cccccccccccccccc
|    240: 63 63 63 63 63 63 63 63 63 63 63 63 63 63 63 63   cccccccccccccccc
|    256: 63 63 63 63 63 63 63 63 63 63 63 63 63 63 63 63   cccccccccccccccc
|    272: 63 63 63 63 63 63 63 63 63 63 63 63 63 63 63 63   cccccccccccccccc
|    288: 63 63 63 63 63 63 63 63 63 63 63 63 63 63 63 63   cccccccccccccccc
|    304: 63 63 63 63 63 63 63 63 63 63 63 63 63 63 63 63   cccccccccccccccc
|    320: 63 63 63 63 63 63 63 63 63 63 63 63 63 63 63 63   cccccccccccccccc
|    336: 63 63 63 63 63 63 63 63 63 63 63 63 63 63 63 63   cccccccccccccccc
|    352: 63 63 63 63 63 63 63 63 63 63 63 63 63 63 63 63   cccccccccccccccc
|    368: 63 63 63 63 63 63 63 63 63 63 63 63 63 63 63 63   cccccccccccccccc
|    384: 63 63 63 63 63 63 63 63 63 63 63 63 63 63 63 63   cccccccccccccccc
|    400: 63 63 63 63 63 63 63 63 63 63 63 63 63 63 63 63   cccccccccccccccc
|    416: 63 63 63 63 63 63 63 63 63 63 63 63 63 63 63 63   cccccccccccccccc
|    432: 63 63 63 63 63 63 63 63 63 63 63 63 63 63 63 63   cccccccccccccccc
|    448: 63 63 63 63 63 63 63 63 63 63 63 63 63 63 63 63   cccccccccccccccc
|    464: 63 63 63 63 63 63 63 63 63 63 63 63 63 63 63 63   cccccccccccccccc
|    480: 63 63 63 63 63 63 63 63 63 63 63 63 63 63 63 63   cccccccccccccccc
|    496: 63 63 63 63 63 63 63 63 63 63 63 63 63 63 63 63   cccccccccccccccc
|    512: 63 63 63 63 63 63 63 63 63 63 63 63 63 63 63 63   cccccccccccccccc
|    528: 63 63 63 63 63 63 63 63 63 63 63 63 63 63 63 63   cccccccccccccccc
|    544: 63 63 63 63 63 63 63 63 63 63 63 63 63 63 63 63   cccccccccccccccc
|    560: 63 63 63 63 63 63 63 63 63 63 63 63 63 63 63 63   cccccccccccccccc
|    576: 63 63 63 63 63 63 63 63 63 63 63 63 63 63 63 63   cccccccccccccccc
|    592: 63 63 63 63 63 63 63 63 63 63 63 63 63 63 63 63   cccccccccccccccc
|    608: 63 63 63 63 63 63 63 63 63 63 63 63 63 63 63 63   cccccccccccccccc
|    624: 63 63 63 63 63 63 63 63 63 63 63 63 63 63 63 63   cccccccccccccccc
|    640: 63 63 63 63 63 63 63 63 63 63 63 63 63 63 63 63   cccccccccccccccc
|    656: 63 63 63 63 63 63 63 63 63 63 63 63 63 63 63 63   cccccccccccccccc
|    672: 63 63 63 63 63 63 63 63 63 63 63 63 63 63 63 63   cccccccccccccccc
|    688: 63 63 63 63 63 63 63 63 63 63 63 63 63 63 63 63   cccccccccccccccc
|    704: 63 63 63 63 63 63 63 63 63 63 63 63 63 63 63 63   cccccccccccccccc
|    720: 63 63 63 63 63 63 63 63 63 63 63 63 63 63 63 63   cccccccccccccccc
|    736: 63 63 63 63 63 63 63 63 63 63 63 63 63 63 63 63   cccccccccccccccc
|    752: 63 63 63 63 63 63 63 63 63 63 63 63 63 63 63 63   cccccccccccccccc
|    768: 63 63 63 63 63 63 63 63 63 63 63 63 63 63 63 63   cccccccccccccccc
|    784: 63 63 63 63 63 63 63 63 63 63 63 63 63 63 63 63   cccccccccccccccc
|    800: 63 63 63 63 63 63 63 63 63 63 63 63 63 63 63 63   cccccccccccccccc
|    816: 63 63 63 63 63 63 63 63 63 63 63 63 63 63 63 63   cccccccccccccccc
|    832: 63 63 63 63 63 63 63 63 63 63 63 63 63 63 63 63   cccccccccccccccc
|    848: 63 63 63 63 63 63 63 63 63 63 63 63 63 63 63 63   cccccccccccccccc
|    864: 63 63 63 63 63 63 63 63 63 63 63 63 63 63 63 63   cccccccccccccccc
|    880: 63 63 63 63 63 63 63 63 63 63 63 63 63 63 63 63   cccccccccccccccc
|    896: 63 63 63 63 63 63 63 63 63 63 63 63 63 63 63 63   cccccccccccccccc
|    912: 63 63 63 63 63 63 63 63 63 63 63 63 63 63 63 63   cccccccccccccccc
|    928: 63 63 63 63 63 63 63 63 63 63 63 63 63 63 63 63   cccccccccccccccc
|    944: 63 63 63 63 63 63 63 63 63 63 63 63 63 63 63 63   cccccccccccccccc
|    960: 63 63 63 63 63 63 63 63 63 63 63 63 63 63 63 63   cccccccccccccccc
|    976: 63 63 63 63 63 63 63 63 63 63 63 63 63 63 63 63   cccccccccccccccc
|    992: 63 63 63 63 63 63 63 63 63 63 63 63 63 63 63 63   cccccccccccccccc
|   1008: 63 63 63 63 63 63 63 63 63 63 63 63 63 63 63 63   cccccccccccccccc
|   1024: 63 63 63 63 63 63 63 63 63 63 63 63 63 63 63 63   cccccccccccccccc
|   1040: 63 63 63 63 63 63 63 63 63 63 63 63 63 63 63 63   cccccccccccccccc
|   1056: 63 63 63 63 63 63 63 63 63 63 63 63 63 63 63 63   cccccccccccccccc
|   1072: 63 63 63 63 63 63 63 63 63 63 63 63 63 63 63 63   cccccccccccccccc
|   1088: 63 63 63 63 63 63 63 63 63 63 63 63 63 63 63 63   cccccccccccccccc
|   1104: 63 63 63 63 63 63 63 63 63 63 63 63 63 63 63 63   cccccccccccccccc
|   1120: 63 63 63 63 63 63 63 63 63 63 63 63 63 63 63 63   cccccccccccccccc
|   1136: 63 63 63 63 63 63 63 63 63 63 63 63 63 63 63 63   cccccccccccccccc
|   1152: 63 63 63 63 63 63 63 63 63 63 63 63 63 63 63 63   cccccccccccccccc
|   1168: 63 63 63 63 63 63 63 63 63 63 63 63 63 63 63 63   cccccccccccccccc
|   1184: 63 63 63 63 63 63 63 63 63 63 63 63 63 63 63 63   cccccccccccccccc
|   1200: 63 63 63 63 63 63 63 63 63 63 63 63 63 63 63 63   cccccccccccccccc
|   1216: 63 63 63 63 63 63 63 63 63 63 63 63 63 63 63 63   cccccccccccccccc
|   1232: 63 63 63 63 63 63 63 63 63 63 63 63 63 63 63 63   cccccccccccccccc
|   1248: 63 63 63 63 63 63 63 63 63 63 63 63 63 63 63 63   cccccccccccccccc
|   1264: 63 63 63 63 63 63 63 63 63 63 63 63 63 63 63 63   cccccccccccccccc
|   1280: 63 63 63 63 63 63 63 63 63 63 63 63 63 63 63 63   cccccccccccccccc
|   1296: 63 63 63 63 63 63 63 63 63 63 63 63 63 63 63 63   cccccccccccccccc
|   1312: 63 63 63 63 63 63 63 63 63 63 63 63 63 63 63 63   cccccccccccccccc
|   1328: 63 63 63 63 63 63 63 63 63 63 63 63 63 63 63 63   cccccccccccccccc
|   1344: 63 63 63 63 63 63 63 63 63 63 63 63 63 63 63 63   cccccccccccccccc
|   1360: 63 63 63 63 63 63 63 63 63 63 63 63 63 63 63 63   cccccccccccccccc
|   1376: 63 63 63 63 63 63 63 63 63 63 63 63 63 63 63 63   cccccccccccccccc
|   1392: 63 63 63 63 63 63 63 63 63 63 63 63 63 63 63 63   cccccccccccccccc
|   1408: 63 63 63 63 63 63 63 63 63 63 63 63 63 63 63 63   cccccccccccccccc
|   1424: 63 63 63 63 63 63 63 63 63 63 63 63 63 63 63 63   cccccccccccccccc
|   1440: 63 63 63 63 63 63 63 63 63 63 63 63 63 63 63 63   cccccccccccccccc
|   1456: 63 63 63 63 63 63 63 63 63 63 63 63 63 63 63 63   cccccccccccccccc
|   1472: 63 63 63 63 63 63 63 63 63 63 63 63 63 63 63 63   cccccccccccccccc
|   1488: 63 63 63 63 63 63 63 63 63 63 63 63 63 63 63 63   cccccccccccccccc
|   1504: 63 63 63 63 63 63 63 63 63 63 63 63 63 63 63 63   cccccccccccccccc
|   1520: 63 63 63 63 63 63 63 63 63 63 63 63 63 63 63 63   cccccccccccccccc
|   1536: 63 63 63 63 63 63 63 63 63 63 63 63 63 63 63 63   cccccccccccccccc
|   1552: 63 63 63 63 63 63 63 63 63 63 63 63 63 63 63 63   cccccccccccccccc
|   1568: 63 63 63 63 63 63 63 63 63 63 63 63 63 63 63 63   cccccccccccccccc
|   1584: 63 63 63 63 63 63 63 63 63 63 63 63 63 63 63 63   cccccccccccccccc
|   1600: 63 63 63 63 63 63 63 63 63 63 63 63 63 63 63 63   cccccccccccccccc
|   1616: 63 63 63 63 63 63 63 63 63 63 63 63 63 63 63 63   cccccccccccccccc
|   1632: 63 63 63 63 63 63 63 63 63 63 63 63 63 63 63 63   cccccccccccccccc
|   1648: 63 63 63 63 63 63 63 63 63 63 63 63 63 63 63 63   cccccccccccccccc
|   1664: 63 63 63 63 63 63 63 63 63 63 63 63 63 63 63 63   cccccccccccccccc
|   1680: 63 63 63 63 63 63 63 63 63 63 63 63 63 63 63 63   cccccccccccccccc
|   1696: 63 63 63 63 63 63 63 63 63 63 63 63 63 63 63 63   cccccccccccccccc
|   1712: 63 63 63 63 63 63 63 63 63 63 63 63 63 63 63 63   cccccccccccccccc
|   1728: 63 63 63 63 63 63 63 63 63 63 63 63 63 63 63 63   cccccccccccccccc
|   1744: 63 63 63 63 63 63 63 63 63 63 63 63 63 63 63 63   cccccccccccccccc
|   1760: 63 63 63 63 63 63 63 63 63 63 63 63 63 63 63 63   cccccccccccccccc
|   1776: 63 63 63 63 63 63 63 63 63 63 63 63 63 63 63 63   cccccccccccccccc
|   1792: 63 63 63 63 63 63 63 63 63 63 63 63 63 63 63 63   cccccccccccccccc
|   1808: 63 63 63 63 63 63 63 63 63 63 63 63 63 63 63 63   cccccccccccccccc
|   1824: 63 63 63 63 63 63 63 63 63 63 63 63 63 63 63 63   cccccccccccccccc
|   1840: 63 63 63 63 63 63 63 63 63 63 63 63 63 63 63 63   cccccccccccccccc
|   1856: 63 63 63 63 63 63 63 63 63 63 63 63 63 63 63 63   cccccccccccccccc
|   1872: 63 63 63 63 63 63 63 63 63 63 63 63 63 63 63 63   cccccccccccccccc
|   1888: 63 63 63 63 63 63 63 63 63 63 63 63 63 63 63 63   cccccccccccccccc
|   1904: 63 63 63 63 63 63 63 63 63 63 63 63 63 63 63 63   cccccccccccccccc
|   1920: 63 63 63 63 63 63 63 63 63 63 63 63 63 63 63 63   cccccccccccccccc
|   1936: 63 63 63 63 63 63 63 63 63 63 63 63 63 63 63 63   cccccccccccccccc
|   1952: 63 63 63 63 63 63 63 63 63 63 63 63 63 63 63 63   cccccccccccccccc
|   1968: 63 63 63 63 63 63 63 63 63 63 63 63 63 63 63 63   cccccccccccccccc
|   1984: 63 63 63 63 63 63 63 63 63 63 63 63 63 63 63 63   cccccccccccccccc
|   2000: 63 63 63 63 63 63 63 63 63 63 63 63 63 63 63 63   cccccccccccccccc
|   2016: 63 63 63 63 63 63 63 63 63 63 63 63 63 63 63 63   cccccccccccccccc
|   2032: 63 63 63 63 63 63 63 63 63 63 63 63 63 63 63 63   cccccccccccccccc
|   2048: 63 63 63 63 63 63 63 63 63 63 63 63 63 63 63 63   cccccccccccccccc
|   2064: 63 63 63 63 63 63 63 63 63 63 63 63 63 63 63 63   cccccccccccccccc
|   2080: 63 63 63 63 63 63 63 63 63 63 63 63 63 63 63 63   cccccccccccccccc
|   2096: 63 63 63 63 63 63 63 63 63 63 63 63 63 63 63 63   cccccccccccccccc
|   2112: 63 63 63 63 63 63 63 63 63 63 63 63 63 63 63 63   cccccccccccccccc
|   2128: 63 63 63 63 63 63 63 63 63 63 63 63 63 63 63 63   cccccccccccccccc
|   2144: 63 63 63 63 63 63 63 63 63 63 63 63 63 63 63 63   cccccccccccccccc
|   2160: 63 63 63 63 63 63 63 63 63 63 63 63 63 63 63 63   cccccccccccccccc
|   2176: 63 63 63 63 63 63 63 63 63 63 63 63 63 63 63 63   cccccccccccccccc
|   2192: 63 63 63 63 63 63 63 63 63 63 63 63 63 63 63 63   cccccccccccccccc
|   2208: 63 63 63 63 63 63 63 63 63 63 63 63 63 63 63 63   cccccccccccccccc
|   2224: 63 63 63 63 63 63 63 63 63 63 63 63 63 63 63 63   cccccccccccccccc
|   2240: 63 63 63 63 63 63 63 63 63 63 63 63 63 63 63 63   cccccccccccccccc
|   2256: 63 63 63 63 63 63 63 63 63 63 63 63 63 63 63 63   cccccccccccccccc
|   2272: 63 63 63 63 63 63 63 63 63 63 63 63 63 63 63 63   cccccccccccccccc
|   2288: 63 63 63 63 63 63 63 63 63 63 63 63 63 63 63 63   cccccccccccccccc
|   2304: 63 63 63 63 63 63 63 63 63 63 63 63 63 63 63 63   cccccccccccccccc
|   2320: 63 63 63 63 63 63 63 63 63 63 63 63 63 63 63 63   cccccccccccccccc
|   2336: 63 63 63 63 63 63 63 63 63 63 63 63 63 63 63 63   cccccccccccccccc
|   2352: 63 63 63 63 63 63 63 63 63 63 63 63 63 63 63 63   cccccccccccccccc
|   2368: 63 63 63 63 63 63 63 63 63 63 63 63 63 63 63 63   cccccccccccccccc
|   2384: 63 63 63 63 63 63 63 63 63 63 63 63 63 63 63 63   cccccccccccccccc
|   2400: 63 63 63 63 63 63 63 63 63 63 63 63 63 63 63 63   cccccccccccccccc
|   2416: 63 63 63 63 63 63 63 63 63 63 63 63 63 63 63 63   cccccccccccccccc
|   2432: 63 63 63 63 63 63 63 63 63 63 63 63 63 63 63 63   cccccccccccccccc
|   2448: 63 63 63 63 63 63 63 63 63 63 63 63 63 63 63 63   cccccccccccccccc
|   2464: 63 63 63 63 63 63 63 63 63 63 63 63 63 63 63 63   cccccccccccccccc
|   2480: 63 63 63 63 63 63 63 63 63 63 63 63 63 63 63 63   cccccccccccccccc
|   2496: 63 63 63 63 63 63 63 63 63 63 63 63 63 63 63 63   cccccccccccccccc
|   2512: 63 63 63 63 63 63 63 63 63 63 63 63 63 63 63 63   cccccccccccccccc
|   2528: 63 63 63 63 63 63 63 63 63 63 63 63 63 63 63 63   cccccccccccccccc
|   2544: 63 63 63 63 63 63 63 63 63 63 63 63 63 63 63 63   cccccccccccccccc
|   2560: 63 63 63 63 63 63 63 63 63 63 63 63 63 63 63 63   cccccccccccccccc
|   2576: 63 63 63 63 63 63 63 63 63 63 63 63 63 63 63 63   cccccccccccccccc
|   2592: 63 63 63 63 63 63 63 63 63 63 63 63 63 63 63 63   cccccccccccccccc
|   2608: 63 63 63 63 63 63 63 63 63 63 63 63 63 63 63 63   cccccccccccccccc
|   2624: 63 63 63 63 63 63 63 63 63 63 63 63 63 63 63 63   cccccccccccccccc
|   2640: 63 63 63 63 63 63 63 63 63 63 63 63 63 63 63 63   cccccccccccccccc
|   2656: 63 63 63 63 63 63 63 63 63 63 63 63 63 63 63 63   cccccccccccccccc
|   2672: 63 63 63 63 63 63 63 63 63 63 63 63 63 63 63 63   cccccccccccccccc
|   2688: 63 63 63 63 63 63 63 63 63 63 63 63 63 63 63 63   cccccccccccccccc
|   2704: 63 63 63 63 63 63 63 63 63 63 63 63 63 63 63 63   cccccccccccccccc
|   2720: 63 63 63 63 63 63 63 63 63 63 63 63 63 63 63 63   cccccccccccccccc
|   2736: 63 63 63 63 63 63 63 63 63 63 63 63 63 63 63 63   cccccccccccccccc
|   2752: 63 63 63 63 63 63 63 63 63 63 63 63 63 63 63 63   cccccccccccccccc
|   2768: 63 63 63 63 63 63 63 63 63 63 63 63 63 63 63 63   cccccccccccccccc
|   2784: 63 63 63 63 63 63 63 63 63 63 63 63 63 63 63 63   cccccccccccccccc
|   2800: 63 63 63 63 63 63 63 63 63 63 63 63 63 63 63 63   cccccccccccccccc
|   2816: 63 63 63 63 63 63 63 63 63 63 63 63 63 63 63 63   cccccccccccccccc
|   2832: 63 63 63 63 63 63 63 63 63 63 63 63 63 63 63 63   cccccccccccccccc
|   2848: 63 63 63 63 63 63 63 63 63 63 63 63 63 63 63 63   cccccccccccccccc
|   2864: 63 63 63 63 63 63 63 63 63 63 63 63 63 63 63 63   cccccccccccccccc
|   2880: 63 63 63 63 63 63 63 63 63 63 63 63 63 63 63 63   cccccccccccccccc
|   2896: 63 63 63 63 63 63 63 63 63 63 63 63 63 63 63 63   cccccccccccccccc
|   2912: 63 63 63 63 63 63 63 63 63 63 63 63 63 63 63 63   cccccccccccccccc
|   2928: 63 63 63 63 63 63 63 63 63 63 63 63 63 63 63 63   cccccccccccccccc
|   2944: 63 63 63 63 63 63 63 63 63 63 63 63 63 63 63 63   cccccccccccccccc
|   2960: 63 63 63 63 63 63 63 63 63 63 63 63 63 63 63 63   cccccccccccccccc
|   2976: 63 63 63 63 63 63 63 63 63 63 63 63 63 63 63 63   cccccccccccccccc
|   2992: 63 63 63 63 63 63 63 63 63 63 63 63 63 63 63 63   cccccccccccccccc
|   3008: 63 63 63 63 63 63 63 63 63 63 63 63 63 63 63 63   cccccccccccccccc
|   3024: 63 63 63 63 63 63 63 63 63 63 63 63 63 63 63 63   cccccccccccccccc
|   3040: 63 63 63 63 63 63 63 63 63 63 63 63 63 63 63 63   cccccccccccccccc
|   3056: 63 63 63 63 63 63 63 63 63 63 63 63 63 63 63 63   cccccccccccccccc
|   3072: 63 63 63 63 63 63 63 63 63 63 63 63 63 63 63 63   cccccccccccccccc
|   3088: 63 63 63 63 63 63 63 63 63 63 63 63 63 63 63 63   cccccccccccccccc
|   3104: 63 63 63 63 63 63 63 63 63 63 63 63 63 63 63 63   cccccccccccccccc
|   3120: 63 63 63 63 63 63 63 63 63 63 63 63 63 63 63 63   cccccccccccccccc
|   3136: 63 63 63 63 63 63 63 63 63 63 63 63 63 63 63 63   cccccccccccccccc
|   3152: 63 63 63 63 63 63 63 63 63 63 63 63 63 63 63 63   cccccccccccccccc
|   3168: 63 63 63 63 63 63 63 63 63 63 63 63 63 63 63 63   cccccccccccccccc
|   3184: 63 63 63 63 63 63 63 63 63 63 63 63 63 63 63 63   cccccccccccccccc
|   3200: 63 63 63 63 63 63 63 63 63 63 63 63 63 63 63 63   cccccccccccccccc
|   3216: 63 63 63 63 63 63 63 63 63 63 63 63 63 63 63 63   cccccccccccccccc
|   3232: 63 63 63 63 63 63 63 63 63 63 63 63 63 63 63 63   cccccccccccccccc
|   3248: 63 63 63 63 63 63 63 63 63 63 63 63 63 63 63 63   cccccccccccccccc
|   3264: 63 63 63 63 63 63 63 63 63 63 63 63 63 63 63 63   cccccccccccccccc
|   3280: 63 63 63 63 63 63 63 63 63 63 63 63 63 63 63 63   cccccccccccccccc
|   3296: 63 63 63 63 63 63 63 63 63 63 63 63 63 63 63 63   cccccccccccccccc
|   3312: 63 63 63 63 63 63 63 63 63 63 63 63 63 63 63 63   cccccccccccccccc
|   3328: 63 63 63 63 63 63 63 63 63 63 63 63 63 63 63 63   cccccccccccccccc
|   3344: 63 63 63 63 63 63 63 63 63 63 63 63 63 63 63 63   cccccccccccccccc
|   3360: 63 63 63 63 63 63 63 63 63 63 63 63 63 63 63 63   cccccccccccccccc
|   3376: 63 63 63 63 63 63 63 63 63 63 63 63 63 63 63 63   cccccccccccccccc
|   3392: 63 63 63 63 63 63 63 63 63 63 63 63 63 63 63 63   cccccccccccccccc
|   3408: 63 63 63 63 63 63 63 63 63 63 63 63 63 63 63 63   cccccccccccccccc
|   3424: 63 63 63 63 63 63 63 63 63 63 63 63 63 63 63 63   cccccccccccccccc
|   3440: 63 63 63 63 63 63 63 63 63 63 63 63 63 63 63 63   cccccccccccccccc
|   3456: 63 63 63 63 63 63 63 63 63 63 63 63 63 63 63 63   cccccccccccccccc
|   3472: 63 63 63 63 63 63 63 63 63 63 63 63 63 63 63 63   cccccccccccccccc
|   3488: 63 63 63 63 63 63 63 63 63 63 63 63 63 63 63 63   cccccccccccccccc
|   3504: 63 63 63 63 63 63 63 63 63 63 63 63 63 63 63 63   cccccccccccccccc
|   3520: 63 63 63 63 63 63 63 63 63 63 63 63 63 63 63 63   cccccccccccccccc
|   3536: 63 63 63 63 63 63 63 63 63 63 63 63 63 63 63 63   cccccccccccccccc
|   3552: 63 63 63 63 63 63 63 63 63 63 63 63 63 63 63 63   cccccccccccccccc
|   3568: 63 63 63 63 63 63 63 63 63 63 63 63 63 63 63 63   cccccccccccccccc
|   3584: 63 63 63 63 63 63 63 63 63 63 63 63 63 63 63 63   cccccccccccccccc
|   3600: 63 63 63 63 63 63 63 63 63 63 63 63 63 63 63 63   cccccccccccccccc
|   3616: 63 63 63 63 63 63 63 63 63 63 63 63 63 63 63 63   cccccccccccccccc
|   3632: 63 63 63 63 63 63 63 63 63 63 63 63 63 63 63 63   cccccccccccccccc
|   3648: 63 63 63 63 63 63 63 63 63 63 63 63 63 63 63 63   cccccccccccccccc
|   3664: 63 63 63 63 63 63 63 63 63 63 63 63 63 63 63 63   cccccccccccccccc
|   3680: 63 63 63 63 63 63 63 63 63 63 63 63 63 63 63 63   cccccccccccccccc
|   3696: 63 63 63 63 63 63 63 63 63 63 63 63 63 63 63 63   cccccccccccccccc
|   3712: 63 63 63 63 63 63 63 63 63 63 63 63 63 63 63 63   cccccccccccccccc
|   3728: 63 63 63 63 63 63 63 63 63 63 63 63 63 63 63 63   cccccccccccccccc
|   3744: 63 63 63 63 63 63 63 63 63 63 63 63 63 63 63 63   cccccccccccccccc
|   3760: 63 63 63 63 63 63 63 63 63 63 63 63 63 63 63 63   cccccccccccccccc
|   3776: 63 63 63 63 63 63 63 63 63 63 63 63 63 63 63 63   cccccccccccccccc
|   3792: 63 63 63 63 63 63 63 63 63 63 63 63 63 63 63 63   cccccccccccccccc
|   3808: 63 63 63 63 63 63 63 63 63 63 63 63 63 63 63 63   cccccccccccccccc
|   3824: 63 63 63 63 63 63 63 63 63 63 63 63 63 63 63 63   cccccccccccccccc
|   3840: 63 63 63 63 63 63 63 63 63 63 63 63 63 63 63 63   cccccccccccccccc
|   3856: 63 63 63 63 63 63 63 63 63 63 63 63 63 63 63 63   cccccccccccccccc
|   3872: 63 63 63 63 63 63 63 63 63 63 63 63 63 63 63 63   cccccccccccccccc
|   3888: 63 63 63 63 63 63 63 63 63 63 63 63 63 63 63 63   cccccccccccccccc
|   3904: 63 63 63 63 63 63 63 63 63 63 63 63 63 63 63 63   cccccccccccccccc
|   3920: 63 63 63 63 63 63 63 63 63 63 63 63 63 63 63 63   cccccccccccccccc
|   3936: 63 63 63 63 63 63 63 63 63 63 63 63 63 63 63 63   cccccccccccccccc
|   3952: 63 63 63 63 63 63 63 63 63 63 63 63 63 63 63 63   cccccccccccccccc
|   3968: 63 63 63 63 63 63 63 63 63 63 63 63 63 63 63 63   cccccccccccccccc
|   3984: 63 63 63 63 63 63 63 63 63 63 63 63 63 63 63 63   cccccccccccccccc
|   4000: 63 63 63 63 63 63 63 63 63 63 63 63 63 63 63 63   cccccccccccccccc
|   4016: 63 63 63 63 63 63 63 63 63 63 63 63 63 63 63 63   cccccccccccccccc
|   4032: 63 63 63 63 63 63 63 63 63 63 63 63 63 63 63 63   cccccccccccccccc
|   4048: 63 63 63 63 63 63 63 63 63 63 63 63 63 63 63 63   cccccccccccccccc
|   4064: 63 63 63 63 63 63 63 63 63 63 63 63 63 63 63 63   cccccccccccccccc
|   4080: 63 63 63 63 63 63 63 63 63 63 63 64 7f 02 02 04   cccccccccccd....
| page 13 offset 49152
|      0: 00 00 00 00 63 63 63 63 63 63 63 63 63 63 63 63   ....cccccccccccc
|     16: 63 63 63 63 63 63 63 63 63 63 63 63 63 63 63 63   cccccccccccccccc
|     32: 63 63 63 63 63 63 63 63 63 63 63 63 63 63 63 63   cccccccccccccccc
|     48: 63 63 63 63 63 63 63 63 63 63 63 63 63 63 63 63   cccccccccccccccc
|     64: 63 63 63 63 63 63 63 63 63 63 63 63 63 63 63 63   cccccccccccccccc
|     80: 63 63 63 63 63 63 63 63 63 63 63 63 63 63 63 63   cccccccccccccccc
|     96: 63 63 63 63 63 63 63 63 63 63 63 63 63 63 63 63   cccccccccccccccc
|    112: 63 63 63 63 63 63 63 63 63 63 63 63 63 63 63 63   cccccccccccccccc
|    128: 63 63 63 63 63 63 63 63 63 63 63 63 63 63 63 63   cccccccccccccccc
|    144: 63 63 63 63 63 63 63 63 63 63 63 63 63 63 63 63   cccccccccccccccc
|    160: 63 63 63 63 63 63 63 63 63 63 63 63 63 63 63 63   cccccccccccccccc
|    176: 63 63 63 63 63 63 63 63 63 63 63 63 63 63 63 63   cccccccccccccccc
|    192: 63 63 63 63 63 63 63 63 63 63 63 63 63 63 63 63   cccccccccccccccc
|    208: 63 63 63 63 63 63 63 63 63 63 63 63 63 63 63 63   cccccccccccccccc
|    224: 63 63 63 63 63 63 63 63 63 63 63 63 63 63 63 63   cccccccccccccccc
|    240: 63 63 63 63 63 63 63 63 63 63 63 63 63 63 63 63   cccccccccccccccc
|    256: 63 63 63 63 63 63 63 63 63 63 63 63 63 63 63 63   cccccccccccccccc
|    272: 63 63 63 63 63 63 63 63 63 63 63 63 63 63 63 63   cccccccccccccccc
|    288: 63 63 63 63 63 63 63 63 63 63 63 63 63 63 63 63   cccccccccccccccc
|    304: 63 63 63 63 63 63 63 63 63 63 63 63 63 63 63 63   cccccccccccccccc
|    320: 63 63 63 63 63 63 63 63 63 63 63 63 63 63 63 63   cccccccccccccccc
|    336: 63 63 63 63 63 63 63 63 63 63 63 63 63 63 63 63   cccccccccccccccc
|    352: 63 63 63 63 63 63 63 63 63 63 63 63 63 63 63 63   cccccccccccccccc
|    368: 63 63 63 63 63 63 63 63 63 63 63 63 63 63 63 63   cccccccccccccccc
|    384: 63 63 63 63 63 63 63 63 63 63 63 63 63 63 63 63   cccccccccccccccc
|    400: 63 63 63 63 63 63 63 63 63 63 63 63 63 63 63 63   cccccccccccccccc
|    416: 63 63 63 63 63 63 63 63 63 63 63 63 63 63 63 63   cccccccccccccccc
|    432: 63 63 63 63 63 63 63 63 63 63 63 63 63 63 63 63   cccccccccccccccc
|    448: 63 63 63 63 63 63 63 63 63 63 63 63 63 63 63 63   cccccccccccccccc
|    464: 63 63 63 63 63 63 63 63 63 63 63 63 63 63 63 63   cccccccccccccccc
|    480: 63 63 63 63 63 63 63 63 63 63 63 63 63 63 63 63   cccccccccccccccc
|    496: 63 63 63 63 63 63 63 63 63 63 63 63 63 63 63 63   cccccccccccccccc
|    512: 63 63 63 63 63 63 63 63 63 63 63 63 63 63 63 63   cccccccccccccccc
|    528: 63 63 63 63 63 63 63 63 63 63 63 63 63 63 63 63   cccccccccccccccc
|    544: 63 63 63 63 63 63 63 63 63 63 63 63 63 63 63 63   cccccccccccccccc
|    560: 63 63 63 63 63 63 63 63 63 63 63 63 63 63 63 63   cccccccccccccccc
|    576: 63 63 63 63 63 63 63 63 63 63 63 63 63 63 63 63   cccccccccccccccc
|    592: 63 63 63 63 63 63 63 63 63 63 63 63 63 63 63 63   cccccccccccccccc
|    608: 63 63 63 63 63 63 63 63 63 63 63 63 63 63 63 63   cccccccccccccccc
|    624: 63 63 63 63 63 63 63 63 63 63 63 63 63 63 63 63   cccccccccccccccc
|    640: 63 63 63 63 63 63 63 63 63 63 63 63 63 63 63 63   cccccccccccccccc
|    656: 63 63 63 63 63 63 63 63 63 63 63 63 63 63 63 63   cccccccccccccccc
|    672: 63 63 63 63 63 63 63 63 63 63 63 63 63 63 63 63   cccccccccccccccc
|    688: 63 63 63 63 63 63 63 63 63 63 63 63 63 63 63 63   cccccccccccccccc
|    704: 63 63 63 63 63 63 63 63 63 63 63 63 63 63 63 63   cccccccccccccccc
|    720: 63 63 63 63 63 63 63 63 63 63 63 63 63 63 63 63   cccccccccccccccc
|    736: 63 63 63 63 63 63 63 63 63 63 63 63 63 63 63 63   cccccccccccccccc
|    752: 63 63 63 63 63 63 63 63 63 63 63 63 63 63 63 63   cccccccccccccccc
|    768: 63 63 63 63 63 63 63 63 63 63 63 63 63 63 63 63   cccccccccccccccc
|    784: 63 63 63 63 63 63 63 63 63 63 63 63 63 63 63 63   cccccccccccccccc
|    800: 63 63 63 63 63 63 63 63 63 63 63 63 63 63 63 63   cccccccccccccccc
|    816: 63 63 63 63 63 63 63 63 63 63 63 63 63 63 63 63   cccccccccccccccc
|    832: 63 63 63 63 63 63 63 63 63 63 63 63 63 63 63 63   cccccccccccccccc
|    848: 63 63 63 63 63 63 63 63 63 63 63 63 63 63 63 63   cccccccccccccccc
|    864: 63 63 63 63 63 63 63 63 63 63 63 63 63 63 63 63   cccccccccccccccc
|    880: 63 63 63 63 63 63 63 63 63 63 63 63 63 63 63 63   cccccccccccccccc
|    896: 63 63 63 63 63 63 63 63 63 63 63 63 63 63 63 63   cccccccccccccccc
|    912: 63 63 63 63 63 63 63 63 63 63 63 63 63 63 63 63   cccccccccccccccc
|    928: 63 63 63 63 63 63 63 63 63 63 63 63 63 63 63 63   cccccccccccccccc
|    944: 63 63 63 63 63 63 63 63 63 63 63 63 63 63 63 63   cccccccccccccccc
|    960: 63 63 63 63 63 63 63 63 63 63 63 63 63 63 63 63   cccccccccccccccc
|    976: 63 63 63 63 63 63 63 63 63 63 63 63 63 63 63 63   cccccccccccccccc
|    992: 63 63 63 63 63 63 63 63 63 63 63 63 63 63 63 63   cccccccccccccccc
|   1008: 63 63 63 63 63 63 63 63 63 63 63 63 63 63 63 63   cccccccccccccccc
|   1024: 63 63 63 63 63 63 63 63 63 63 63 63 63 63 63 63   cccccccccccccccc
|   1040: 63 63 63 63 63 63 63 63 63 63 63 63 63 63 63 63   cccccccccccccccc
|   1056: 63 63 63 63 63 63 63 63 63 63 63 63 63 63 63 63   cccccccccccccccc
|   1072: 63 63 63 63 63 63 63 63 63 63 63 63 63 63 63 63   cccccccccccccccc
|   1088: 63 63 63 63 63 63 63 63 63 63 63 63 63 63 63 63   cccccccccccccccc
|   1104: 63 63 63 63 63 63 63 63 63 63 63 63 63 63 63 63   cccccccccccccccc
|   1120: 63 63 63 63 63 63 63 63 63 63 63 63 63 63 63 63   cccccccccccccccc
|   1136: 63 63 63 63 63 63 63 63 63 63 63 63 63 63 63 63   cccccccccccccccc
|   1152: 63 63 63 63 63 63 63 63 63 63 63 63 63 63 63 63   cccccccccccccccc
|   1168: 63 63 63 63 63 63 63 63 63 63 63 63 63 63 63 63   cccccccccccccccc
|   1184: 63 63 63 63 63 63 63 63 63 63 63 63 63 63 63 63   cccccccccccccccc
|   1200: 63 63 63 63 63 63 63 63 63 63 63 63 63 63 63 63   cccccccccccccccc
|   1216: 63 63 63 63 63 63 63 63 63 63 63 63 63 63 63 63   cccccccccccccccc
|   1232: 63 63 63 63 63 63 63 63 63 63 63 63 63 63 63 63   cccccccccccccccc
|   1248: 63 63 63 63 63 63 63 63 63 63 63 63 63 63 63 63   cccccccccccccccc
|   1264: 63 63 63 63 63 63 63 63 63 63 63 63 63 63 63 63   cccccccccccccccc
|   1280: 63 63 63 63 63 63 63 63 63 63 63 63 63 63 63 63   cccccccccccccccc
|   1296: 63 63 63 63 63 63 63 63 63 63 63 63 63 63 63 63   cccccccccccccccc
|   1312: 63 63 63 63 63 63 63 63 63 63 63 63 63 63 63 63   cccccccccccccccc
|   1328: 63 63 63 63 63 63 63 63 63 63 63 63 63 63 63 63   cccccccccccccccc
|   1344: 63 63 63 63 63 63 63 63 63 63 63 63 63 63 63 63   cccccccccccccccc
|   1360: 63 63 63 63 63 63 63 63 63 63 63 63 63 63 63 63   cccccccccccccccc
|   1376: 63 63 63 63 63 63 63 63 63 63 63 63 63 63 63 63   cccccccccccccccc
|   1392: 63 63 63 63 63 63 63 63 63 63 63 63 63 63 63 63   cccccccccccccccc
|   1408: 63 63 63 63 63 63 63 63 63 63 63 63 63 63 63 63   cccccccccccccccc
|   1424: 63 63 63 63 63 63 63 63 63 63 63 63 63 63 63 63   cccccccccccccccc
|   1440: 63 63 63 63 63 63 63 63 63 63 63 63 63 63 63 63   cccccccccccccccc
|   1456: 63 63 63 63 63 63 63 63 63 63 63 63 63 63 63 63   cccccccccccccccc
|   1472: 63 63 63 63 63 63 63 63 63 63 63 63 63 63 63 63   cccccccccccccccc
|   1488: 63 63 63 63 63 63 63 63 63 63 63 63 63 63 63 63   cccccccccccccccc
|   1504: 63 63 63 63 63 63 63 63 63 63 63 63 63 63 63 63   cccccccccccccccc
|   1520: 63 63 63 63 63 63 63 63 63 63 63 63 63 63 63 63   cccccccccccccccc
|   1536: 63 63 63 63 63 63 63 63 63 63 63 63 63 63 63 63   cccccccccccccccc
|   1552: 63 63 63 63 63 63 63 63 63 63 63 63 63 63 63 63   cccccccccccccccc
|   1568: 63 63 63 63 63 63 63 63 63 63 63 63 63 63 63 63   cccccccccccccccc
|   1584: 63 63 63 63 63 63 63 63 63 63 63 63 63 63 63 63   cccccccccccccccc
|   1600: 63 63 63 63 63 63 63 63 63 63 63 63 63 63 63 63   cccccccccccccccc
|   1616: 63 63 63 63 63 63 63 63 63 63 63 63 63 63 63 63   cccccccccccccccc
|   1632: 63 63 63 63 63 63 63 63 63 63 63 63 63 63 63 63   cccccccccccccccc
|   1648: 63 63 63 63 63 63 63 63 63 63 63 63 63 63 63 63   cccccccccccccccc
|   1664: 63 63 63 63 63 63 63 63 63 63 63 63 63 63 63 63   cccccccccccccccc
|   1680: 63 63 63 63 63 63 63 63 63 63 63 63 63 63 63 63   cccccccccccccccc
|   1696: 63 63 63 63 63 63 63 63 63 63 63 63 63 63 63 63   cccccccccccccccc
|   1712: 63 63 63 63 63 63 63 63 63 63 63 63 63 63 63 63   cccccccccccccccc
|   1728: 63 63 63 63 63 63 63 63 63 63 63 63 63 63 63 63   cccccccccccccccc
|   1744: 63 63 63 63 63 63 63 63 63 63 63 63 63 63 63 63   cccccccccccccccc
|   1760: 63 63 63 63 63 63 63 63 63 63 63 63 63 63 63 63   cccccccccccccccc
|   1776: 63 63 63 63 63 63 63 63 63 63 63 63 63 63 63 63   cccccccccccccccc
|   1792: 63 63 63 63 63 63 63 63 63 63 63 63 63 63 63 63   cccccccccccccccc
|   1808: 63 63 63 63 63 63 63 63 63 63 63 63 63 63 63 63   cccccccccccccccc
|   1824: 63 63 63 63 63 63 63 63 63 63 63 63 63 63 63 63   cccccccccccccccc
|   1840: 63 63 63 63 63 63 63 63 63 63 63 63 63 63 63 63   cccccccccccccccc
|   1856: 63 63 63 63 63 63 63 63 63 63 63 63 63 63 63 63   cccccccccccccccc
|   1872: 63 63 63 63 63 63 63 63 63 63 63 63 63 63 63 63   cccccccccccccccc
|   1888: 63 63 63 63 63 63 63 63 63 63 63 63 63 63 63 63   cccccccccccccccc
|   1904: 63 63 63 63 63 63 63 63 63 63 63 63 63 63 63 63   cccccccccccccccc
|   1920: 63 63 63 63 63 63 63 63 63 63 63 63 63 63 63 63   cccccccccccccccc
|   1936: 63 63 63 63 63 63 63 63 63 63 63 63 63 63 63 63   cccccccccccccccc
|   1952: 63 63 63 63 63 63 63 63 63 63 63 63 63 63 63 63   cccccccccccccccc
|   1968: 63 63 63 63 63 63 63 63 63 63 63 63 63 63 63 63   cccccccccccccccc
|   1984: 63 63 63 63 63 63 63 63 63 63 63 63 63 63 63 63   cccccccccccccccc
|   2000: 63 63 63 63 63 63 63 63 63 63 63 63 63 63 63 63   cccccccccccccccc
|   2016: 63 63 63 63 63 63 63 63 63 63 63 63 63 63 63 63   cccccccccccccccc
|   2032: 63 63 63 63 63 63 63 63 63 63 63 63 63 63 63 63   cccccccccccccccc
|   2048: 63 63 63 63 63 63 63 63 63 63 63 63 63 63 63 63   cccccccccccccccc
|   2064: 63 63 63 63 63 63 63 63 63 63 63 63 63 63 63 63   cccccccccccccccc
|   2080: 63 63 63 63 63 63 63 63 63 63 63 63 63 63 63 63   cccccccccccccccc
|   2096: 63 63 63 63 63 63 63 63 63 63 63 63 63 63 63 63   cccccccccccccccc
|   2112: 63 63 63 63 63 63 63 63 63 63 63 63 63 63 63 63   cccccccccccccccc
|   2128: 63 63 63 63 63 63 63 63 63 63 63 63 63 63 63 63   cccccccccccccccc
|   2144: 63 63 63 63 63 63 63 63 63 63 63 63 63 63 63 63   cccccccccccccccc
|   2160: 63 63 63 63 63 63 63 63 63 63 63 63 63 63 63 63   cccccccccccccccc
|   2176: 63 63 63 63 63 63 63 63 63 63 63 63 63 63 63 63   cccccccccccccccc
|   2192: 63 63 63 63 63 63 63 63 63 63 63 63 63 63 63 63   cccccccccccccccc
|   2208: 63 63 63 63 63 63 63 63 63 63 63 63 63 63 63 63   cccccccccccccccc
|   2224: 63 63 63 63 63 63 63 63 63 63 63 63 63 63 63 63   cccccccccccccccc
|   2240: 63 63 63 63 63 63 63 63 63 63 63 63 63 63 63 63   cccccccccccccccc
|   2256: 63 63 63 63 63 63 63 63 63 63 63 63 63 63 63 63   cccccccccccccccc
|   2272: 63 63 63 63 63 63 63 63 63 63 63 63 63 63 63 63   cccccccccccccccc
|   2288: 63 63 63 63 63 63 63 63 63 63 63 63 63 63 63 63   cccccccccccccccc
|   2304: 63 63 63 63 63 63 63 63 63 63 63 63 63 63 63 63   cccccccccccccccc
|   2320: 63 63 63 63 63 63 63 63 63 63 63 63 63 63 63 63   cccccccccccccccc
|   2336: 63 63 63 63 63 63 63 63 63 63 63 63 63 63 63 63   cccccccccccccccc
|   2352: 63 63 63 63 63 63 63 63 63 63 63 63 63 63 63 63   cccccccccccccccc
|   2368: 63 63 63 63 63 63 63 63 63 63 63 63 63 63 63 63   cccccccccccccccc
|   2384: 63 63 63 63 63 63 63 63 63 63 63 63 63 63 63 63   cccccccccccccccc
|   2400: 63 63 63 63 63 63 63 63 63 63 63 63 63 63 63 63   cccccccccccccccc
|   2416: 63 63 63 63 63 63 63 63 63 63 63 63 63 63 63 63   cccccccccccccccc
|   2432: 63 63 63 63 63 63 63 63 63 63 63 63 63 63 63 63   cccccccccccccccc
|   2448: 63 63 63 63 63 63 63 63 63 63 63 63 63 63 63 63   cccccccccccccccc
|   2464: 63 63 63 63 63 63 63 63 63 63 63 63 63 63 63 63   cccccccccccccccc
|   2480: 63 63 63 63 63 63 63 63 63 63 63 63 63 63 63 63   cccccccccccccccc
|   2496: 63 63 63 63 63 63 63 63 63 63 63 63 63 63 63 63   cccccccccccccccc
|   2512: 63 63 63 63 63 63 63 63 63 63 63 63 63 63 63 63   cccccccccccccccc
|   2528: 63 63 63 63 63 63 63 63 63 63 63 63 63 63 63 63   cccccccccccccccc
|   2544: 63 63 63 63 63 63 63 63 63 63 63 63 63 63 63 63   cccccccccccccccc
|   2560: 63 63 63 63 63 63 63 63 63 63 63 63 63 63 63 63   cccccccccccccccc
|   2576: 63 63 63 63 63 63 63 63 63 63 63 63 63 63 63 63   cccccccccccccccc
|   2592: 63 63 63 63 63 63 63 63 63 63 63 63 63 63 63 63   cccccccccccccccc
|   2608: 63 63 63 63 63 63 63 63 63 63 63 63 63 63 63 63   cccccccccccccccc
|   2624: 63 63 63 63 63 63 63 63 63 63 63 63 63 63 63 63   cccccccccccccccc
|   2640: 63 63 63 63 63 63 63 63 63 63 63 63 63 63 63 63   cccccccccccccccc
|   2656: 63 63 63 63 63 63 63 63 63 63 63 63 63 63 63 63   cccccccccccccccc
|   2672: 63 63 63 63 63 63 63 63 63 63 63 63 63 63 63 63   cccccccccccccccc
|   2688: 63 63 63 63 63 63 63 63 63 63 63 63 63 63 63 63   cccccccccccccccc
|   2704: 63 63 63 63 63 63 63 63 63 63 63 63 63 63 63 63   cccccccccccccccc
|   2720: 63 63 63 63 63 63 63 63 63 63 63 63 63 63 63 63   cccccccccccccccc
|   2736: 63 63 63 63 63 63 63 63 63 63 63 63 63 63 63 63   cccccccccccccccc
|   2752: 63 63 63 63 63 63 63 63 63 63 63 63 63 63 63 63   cccccccccccccccc
|   2768: 63 63 63 63 63 63 63 63 63 63 63 63 63 63 63 63   cccccccccccccccc
|   2784: 63 63 63 63 63 63 63 63 63 63 63 63 63 63 63 63   cccccccccccccccc
|   2800: 63 63 63 63 63 63 63 63 63 63 63 63 63 63 63 63   cccccccccccccccc
|   2816: 63 63 63 63 63 63 63 63 63 63 63 63 63 63 63 63   cccccccccccccccc
|   2832: 63 63 63 63 63 63 63 63 63 63 63 63 63 63 63 63   cccccccccccccccc
|   2848: 63 63 63 63 63 63 63 63 63 63 63 63 63 63 63 63   cccccccccccccccc
|   2864: 63 63 63 63 63 63 63 63 63 63 63 63 63 63 63 63   cccccccccccccccc
|   2880: 63 63 63 63 63 63 63 63 63 63 63 63 63 63 63 63   cccccccccccccccc
|   2896: 63 63 63 63 63 63 63 63 63 63 63 63 63 63 63 63   cccccccccccccccc
|   2912: 63 63 63 63 63 63 63 63 63 63 63 63 63 63 63 63   cccccccccccccccc
|   2928: 63 63 63 63 63 63 63 63 63 63 63 63 63 63 63 63   cccccccccccccccc
|   2944: 63 63 63 63 63 63 63 63 63 63 63 63 63 63 63 63   cccccccccccccccc
|   2960: 63 63 63 63 63 63 63 63 63 63 63 63 63 63 63 63   cccccccccccccccc
|   2976: 63 63 63 63 63 63 63 63 63 63 63 63 63 63 63 63   cccccccccccccccc
|   2992: 63 63 63 63 63 63 63 63 63 63 63 63 63 63 63 63   cccccccccccccccc
|   3008: 63 63 63 63 63 63 63 63 63 63 63 63 63 63 63 63   cccccccccccccccc
|   3024: 63 63 63 63 63 63 63 63 63 63 63 63 63 63 63 63   cccccccccccccccc
|   3040: 63 63 63 63 63 63 63 63 63 63 63 63 63 63 63 63   cccccccccccccccc
|   3056: 63 63 63 63 63 63 63 63 63 63 63 63 63 63 63 63   cccccccccccccccc
|   3072: 63 63 63 63 63 63 63 63 63 63 63 63 63 63 63 63   cccccccccccccccc
|   3088: 63 63 63 63 63 63 63 63 63 63 63 63 63 63 63 63   cccccccccccccccc
|   3104: 63 63 63 63 63 63 63 63 63 63 63 63 63 63 63 63   cccccccccccccccc
|   3120: 63 63 63 63 63 63 63 63 63 63 63 63 63 63 63 63   cccccccccccccccc
|   3136: 63 63 63 63 63 63 63 63 63 63 63 63 63 63 63 63   cccccccccccccccc
|   3152: 63 63 63 63 63 63 63 63 63 63 63 63 63 63 63 63   cccccccccccccccc
|   3168: 63 63 63 63 63 63 63 63 63 63 63 63 63 63 63 63   cccccccccccccccc
|   3184: 63 63 63 63 63 63 63 63 63 63 63 63 63 63 63 63   cccccccccccccccc
|   3200: 63 63 63 63 63 63 63 63 63 63 63 63 63 63 63 63   cccccccccccccccc
|   3216: 63 63 63 63 63 63 63 63 63 63 63 63 63 63 63 63   cccccccccccccccc
|   3232: 63 63 63 63 63 63 63 63 63 63 63 63 63 63 63 63   cccccccccccccccc
|   3248: 63 63 63 63 63 63 63 63 63 63 63 63 63 63 63 63   cccccccccccccccc
|   3264: 63 63 63 63 63 63 63 63 63 63 63 63 63 63 63 63   cccccccccccccccc
|   3280: 63 63 63 63 63 63 63 63 63 63 63 63 63 63 63 63   cccccccccccccccc
|   3296: 63 63 63 63 63 63 63 63 63 63 63 63 63 63 63 63   cccccccccccccccc
|   3312: 63 63 63 63 63 63 63 63 63 63 63 63 63 63 63 63   cccccccccccccccc
|   3328: 63 63 63 63 63 63 63 63 63 63 63 63 63 63 63 63   cccccccccccccccc
|   3344: 63 63 63 63 63 63 63 63 63 63 63 63 63 63 63 63   cccccccccccccccc
|   3360: 63 63 63 63 63 63 63 63 63 63 63 63 63 63 63 63   cccccccccccccccc
|   3376: 63 63 63 63 63 63 63 63 63 63 63 63 63 63 63 63   cccccccccccccccc
|   3392: 63 63 63 63 63 63 63 63 63 63 63 63 63 63 63 63   cccccccccccccccc
|   3408: 63 63 63 63 63 63 63 63 63 63 63 63 63 63 63 63   cccccccccccccccc
|   3424: 63 63 63 63 63 63 63 63 63 63 63 63 63 63 63 63   cccccccccccccccc
|   3440: 63 63 63 63 63 63 63 63 63 63 63 63 63 63 63 63   cccccccccccccccc
|   3456: 63 63 63 63 63 63 63 63 63 63 63 63 63 63 63 63   cccccccccccccccc
|   3472: 63 63 63 63 63 63 63 63 63 63 63 63 63 63 63 63   cccccccccccccccc
|   3488: 63 63 63 63 63 63 63 63 63 63 63 63 63 63 63 63   cccccccccccccccc
|   3504: 63 63 63 63 63 63 63 63 63 63 63 63 63 63 63 63   cccccccccccccccc
|   3520: 63 63 64 06 00 00 00 00 00 00 00 00 00 00 00 00   ccd.............
| end v3.db
  }]
} {}
do_catchsql_test 1.1 {
  INSERT INTO t(t) VALUES('integrity-check');
} {1 {fts5: corruption found reading blob 412316860419 from table "t"}}

# Bug 2026-06-27T18:46:54Z
# FTS5 fts5SegIterNextInit Unvalidated iTermOff Heap Over-read (tokendata=1)
#
set pending_prev [sqlite3_test_control_pending_byte 0x1000000]
do_test 2.0 {
  sqlite3 db {}
  db deserialize [decode_hexdb {
.open --hexdb
| size 77824 pagesize 4096 filename v4.db
| page 1 offset 0
|      0: 53 51 4c 69 74 65 20 66 6f 72 6d 61 74 20 33 00   SQLite format 3.
|     16: 10 00 01 01 00 40 20 20 00 00 00 02 00 00 00 13   .....@  ........
|     32: 00 00 00 00 00 00 00 00 00 00 00 06 00 00 00 04   ................
|     48: 00 00 00 00 00 00 00 00 00 00 00 01 00 00 00 00   ................
|     80: 00 00 00 00 00 00 00 00 00 00 00 00 00 00 00 02   ................
|     96: 00 2e 99 b0 0d 00 00 00 06 0e 03 00 0f c0 0f 6d   ...............m
|    112: 0f 05 0e b1 0e 58 0e 03 00 00 00 00 00 00 00 00   .....X..........
|   3584: 00 00 00 53 06 06 17 1d 1d 01 7b 74 61 62 6c 65   ...S.......table
|   3600: 74 5f 63 6f 6e 66 69 67 74 5f 63 6f 6e 66 69 67   t_configt_config
|   3616: 06 43 52 45 41 54 45 20 54 41 42 4c 45 20 27 74   .CREATE TABLE 't
|   3632: 5f 63 6f 6e 66 69 67 27 28 6b 20 50 52 49 4d 41   _config'(k PRIMA
|   3648: 52 59 20 4b 45 59 2c 20 76 29 20 57 49 54 48 4f   RY KEY, v) WITHO
|   3664: 55 54 20 52 4f 57 49 44 57 05 06 17 1f 1f 01 7f   UT ROWIDW.......
|   3680: 74 61 62 6c 65 74 5f 64 6f 63 73 69 7a 65 74 5f   tablet_docsizet_
|   3696: 64 6f 63 73 69 7a 65 05 43 52 45 41 54 45 20 54   docsize.CREATE T
|   3712: 41 42 4c 45 20 27 74 5f 64 6f 63 73 69 7a 65 27   ABLE 't_docsize'
|   3728: 28 69 64 20 49 4e 54 45 47 45 52 20 50 52 49 4d   (id INTEGER PRIM
|   3744: 41 52 59 20 4b 45 59 2c 20 73 7a 20 42 4c 4f 42   ARY KEY, sz BLOB
|   3760: 29 52 04 06 17 1f 1f 01 75 74 61 62 6c 65 74 5f   )R......utablet_
|   3776: 63 6f 6e 74 65 6e 74 74 5f 63 6f 6e 74 65 6e 74   contentt_content
|   3792: 04 43 52 45 41 54 45 20 54 41 42 4c 45 20 27 74   .CREATE TABLE 't
|   3808: 5f 63 6f 6e 74 65 6e 74 27 28 69 64 20 49 4e 54   _content'(id INT
|   3824: 45 47 45 52 20 50 52 49 4d 41 52 59 20 4b 45 59   EGER PRIMARY KEY
|   3840: 2c 20 63 30 29 66 03 07 17 17 17 01 81 2b 74 61   , c0)f.......+ta
|   3856: 62 6c 65 74 5f 69 64 78 74 5f 69 64 78 03 43 52   blet_idxt_idx.CR
|   3872: 45 41 54 45 20 54 41 42 4c 45 20 27 74 5f 69 64   EATE TABLE 't_id
|   3888: 78 27 28 73 65 67 69 64 2c 20 74 65 72 6d 2c 20   x'(segid, term, 
|   3904: 70 67 6e 6f 2c 20 50 52 49 4d 41 52 59 20 4b 45   pgno, PRIMARY KE
|   3920: 59 28 73 65 67 69 64 2c 20 74 65 72 6d 29 29 20   Y(segid, term)) 
|   3936: 57 49 54 48 4f 55 54 20 52 4f 57 49 44 51 02 06   WITHOUT ROWIDQ..
|   3952: 17 19 19 01 7f 74 61 62 6c 65 74 5f 64 61 74 61   .....tablet_data
|   3968: 74 5f 64 61 74 61 02 43 52 45 41 54 45 20 54 41   t_data.CREATE TA
|   3984: 42 4c 45 20 27 74 5f 64 61 74 61 27 28 69 64 20   BLE 't_data'(id 
|   4000: 49 4e 54 45 47 45 52 20 50 52 49 4d 41 52 59 20   INTEGER PRIMARY 
|   4016: 4b 45 59 2c 20 62 6c 6f 63 6b 20 42 4c 4f 42 29   KEY, block BLOB)
|   4032: 3e 01 06 17 0f 0f 08 6f 74 61 62 6c 65 74 74 43   >......otablettC
|   4048: 52 45 41 54 45 20 56 49 52 54 55 41 4c 20 54 41   REATE VIRTUAL TA
|   4064: 42 4c 45 20 74 20 55 53 49 4e 47 20 66 74 73 35   BLE t USING fts5
|   4080: 28 61 2c 20 74 6f 6b 65 6e 64 61 74 61 3d 31 29   (a, tokendata=1)
| page 2 offset 4096
|      0: 05 00 00 00 04 0f dd 00 00 00 00 13 0f fb 0f f1   ................
|     16: 0f e7 0f dd 00 00 00 00 00 00 00 00 00 00 00 00   ................
|   4064: 12 84 80 80 80 80 03 00 00 00 11 84 80 80 80 80   ................
|   4080: 02 00 00 00 10 84 80 80 80 80 01 00 00 00 0f 0a   ................
| page 3 offset 8192
|      0: 0a 00 00 00 04 0f dc 00 0f fa 0f f2 0f e7 0f dc   ................
|   4048: 00 00 00 00 00 00 00 00 00 00 00 00 0a 04 09 16   ................
|   4064: 01 30 78 37 30 32 08 0a 04 09 16 01 30 78 32 34   .0x702......0x24
|   4080: 32 06 07 04 09 10 01 30 78 04 05 04 09 0c 01 02   2......0x.......
| page 6 offset 20480
|      0: 0a 00 00 00 01 0f f4 00 0f f4 00 00 00 00 00 00   ................
|   4080: 00 00 00 00 0b 03 1b 01 76 65 72 73 69 6f 6e 04   ........version.
| page 15 offset 57344
|      0: 0d 00 00 00 02 0f e6 00 0f e6 0f ef 00 00 00 00   ................
|   4064: 00 00 00 00 00 00 07 01 03 00 14 8a 46 95 0c 0f   ............F...
|   4080: 0a 03 00 24 00 00 00 00 01 01 04 00 01 01 01 04   ...$............
| page 16 offset 61440
|      0: 0d 00 00 00 01 00 21 00 00 21 00 00 00 00 00 00   ......!..!......
|     32: 00 9f 57 84 80 80 80 80 01 04 00 bf 32 00 00 0f   ..W.........2...
|     48: d2 02 30 61 01 02 02 01 02 02 01 02 02 01 02 02   ..0a............
|     64: 01 02 02 01 02 02 01 02 02 01 02 02 01 02 02 01   ................
|     80: 02 02 01 02 02 01 02 02 01 02 02 01 02 02 01 02   ................
|     96: 02 01 02 02 01 02 02 01 02 02 01 02 02 01 02 02   ................
|    112: 01 02 02 01 02 02 01 02 02 01 02 02 01 02 02 01   ................
|    128: 02 02 01 02 02 01 02 02 01 02 02 01 02 02 01 02   ................
|    144: 02 01 02 02 01 02 02 01 02 02 01 02 02 01 02 02   ................
|    160: 01 02 02 01 02 02 01 02 02 01 02 02 01 02 02 01   ................
|    176: 02 02 01 02 02 01 02 02 01 02 02 01 02 02 01 02   ................
|    192: 02 01 02 02 01 02 02 01 02 02 01 02 02 01 02 02   ................
|    208: 01 02 02 01 02 02 01 02 02 01 02 02 01 02 02 01   ................
|    224: 02 02 01 02 02 01 02 02 01 02 02 01 02 02 01 02   ................
|    240: 02 01 02 02 01 02 02 01 02 02 01 02 02 01 02 02   ................
|    256: 01 02 02 01 02 02 01 02 02 01 02 02 01 02 02 01   ................
|    272: 02 02 01 02 02 01 02 02 01 02 02 01 02 02 01 02   ................
|    288: 02 01 02 02 01 02 02 01 02 02 01 02 02 01 02 02   ................
|    304: 01 02 02 01 02 02 01 02 02 01 02 02 01 02 02 01   ................
|    320: 02 02 01 02 02 01 02 02 01 02 02 01 02 02 01 02   ................
|    336: 02 01 02 02 01 02 02 01 02 02 01 02 02 01 02 02   ................
|    352: 01 02 02 01 02 02 01 02 02 01 02 02 01 02 02 01   ................
|    368: 02 02 01 02 02 01 02 02 01 02 02 01 02 02 01 02   ................
|    384: 02 01 02 02 01 02 02 01 02 02 01 02 02 01 02 02   ................
|    400: 01 02 02 01 02 02 01 02 02 01 02 02 01 02 02 01   ................
|    416: 02 02 01 02 02 01 02 02 01 02 02 01 02 02 01 02   ................
|    432: 02 01 02 02 01 02 02 01 02 02 01 02 02 01 02 02   ................
|    448: 01 02 02 01 02 02 01 02 02 01 02 02 01 02 02 01   ................
|    464: 02 02 01 02 02 01 02 02 01 02 02 01 02 02 01 02   ................
|    480: 02 01 02 02 01 02 02 01 02 02 01 02 02 01 02 02   ................
|    496: 01 02 02 01 02 02 01 02 02 01 02 02 01 02 02 01   ................
|    512: 02 02 01 02 02 01 02 02 01 02 02 01 02 02 01 02   ................
|    528: 02 01 02 02 01 02 02 01 02 02 01 02 02 01 02 02   ................
|    544: 01 02 02 01 02 02 01 02 02 01 02 02 01 02 02 01   ................
|    560: 02 02 01 02 02 01 02 02 01 02 02 01 02 02 01 02   ................
|    576: 02 01 02 02 01 02 02 01 02 02 01 02 02 01 02 02   ................
|    592: 01 02 02 01 02 02 01 02 02 01 02 02 01 02 02 01   ................
|    608: 02 02 01 02 02 01 02 02 01 02 02 01 02 02 01 02   ................
|    624: 02 01 02 02 01 02 02 01 02 02 01 02 02 01 02 02   ................
|    640: 01 02 02 01 02 02 01 02 02 01 02 02 01 02 02 01   ................
|    656: 02 02 01 02 02 01 02 02 01 02 02 01 02 02 01 02   ................
|    672: 02 01 02 02 01 02 02 01 02 02 01 02 02 01 02 02   ................
|    688: 01 02 02 01 02 02 01 02 02 01 02 02 01 02 02 01   ................
|    704: 02 02 01 02 02 01 02 02 01 02 02 01 02 02 01 02   ................
|    720: 02 01 02 02 01 02 02 01 02 02 01 02 02 01 02 02   ................
|    736: 01 02 02 01 02 02 01 02 02 01 02 02 01 02 02 01   ................
|    752: 02 02 01 02 02 01 02 02 01 02 02 01 02 02 01 02   ................
|    768: 02 01 02 02 01 02 02 01 02 02 01 02 02 01 02 02   ................
|    784: 01 02 02 01 02 02 01 02 02 01 02 02 01 02 02 01   ................
|    800: 02 02 01 02 02 01 02 02 01 02 02 01 02 02 01 02   ................
|    816: 02 01 02 02 01 02 02 01 02 02 01 02 02 01 02 02   ................
|    832: 01 02 02 01 02 02 01 02 02 01 02 02 01 02 02 01   ................
|    848: 02 02 01 02 02 01 02 02 01 02 02 01 02 02 01 02   ................
|    864: 02 01 02 02 01 02 02 01 02 02 01 02 02 01 02 02   ................
|    880: 01 02 02 01 02 02 01 02 02 01 02 02 01 02 02 01   ................
|    896: 02 02 01 02 02 01 02 02 01 02 02 01 02 02 01 02   ................
|    912: 02 01 02 02 01 02 02 01 02 02 01 02 02 01 02 02   ................
|    928: 01 02 02 01 02 02 01 02 02 01 02 02 01 02 02 01   ................
|    944: 02 02 01 02 02 01 02 02 01 02 02 01 02 02 01 02   ................
|    960: 02 01 02 02 01 02 02 01 02 02 01 02 02 01 02 02   ................
|    976: 01 02 02 01 02 02 01 02 02 01 02 02 01 02 02 01   ................
|    992: 02 02 01 02 02 01 02 02 01 02 02 01 02 02 01 02   ................
|   1008: 02 01 02 02 01 02 02 01 02 02 01 02 02 01 02 02   ................
|   1024: 01 02 02 01 02 02 01 02 02 01 02 02 01 02 02 01   ................
|   1040: 02 02 01 02 02 01 02 02 01 02 02 01 02 02 01 02   ................
|   1056: 02 01 02 02 01 02 02 01 02 02 01 02 02 01 02 02   ................
|   1072: 01 02 02 01 02 02 01 02 02 01 02 02 01 02 02 01   ................
|   1088: 02 02 01 02 02 01 02 02 01 02 02 01 02 02 01 02   ................
|   1104: 02 01 02 02 01 02 02 01 02 02 01 02 02 01 02 02   ................
|   1120: 01 02 02 01 02 02 01 02 02 01 02 02 01 02 02 01   ................
|   1136: 02 02 01 02 02 01 02 02 01 02 02 01 02 02 01 02   ................
|   1152: 02 01 02 02 01 02 02 01 02 02 01 02 02 01 02 02   ................
|   1168: 01 02 02 01 02 02 01 02 02 01 02 02 01 02 02 01   ................
|   1184: 02 02 01 02 02 01 02 02 01 02 02 01 02 02 01 02   ................
|   1200: 02 01 02 02 01 02 02 01 02 02 01 02 02 01 02 02   ................
|   1216: 01 02 02 01 02 02 01 02 02 01 02 02 01 02 02 01   ................
|   1232: 02 02 01 02 02 01 02 02 01 02 02 01 02 02 01 02   ................
|   1248: 02 01 02 02 01 02 02 01 02 02 01 02 02 01 02 02   ................
|   1264: 01 02 02 01 02 02 01 02 02 01 02 02 01 02 02 01   ................
|   1280: 02 02 01 02 02 01 02 02 01 02 02 01 02 02 01 02   ................
|   1296: 02 01 02 02 01 02 02 01 02 02 01 02 02 01 02 02   ................
|   1312: 01 02 02 01 02 02 01 02 02 01 02 02 01 02 02 01   ................
|   1328: 02 02 01 02 02 01 02 02 01 02 02 01 02 02 01 02   ................
|   1344: 02 01 02 02 01 02 02 01 02 02 01 02 02 01 02 02   ................
|   1360: 01 02 02 01 02 02 01 02 02 01 02 02 01 02 02 01   ................
|   1376: 02 02 01 02 02 01 02 02 01 02 02 01 02 02 01 02   ................
|   1392: 02 01 02 02 01 02 02 01 02 02 01 02 02 01 02 02   ................
|   1408: 01 02 02 01 02 02 01 02 02 01 02 02 01 02 02 01   ................
|   1424: 02 02 01 02 02 01 02 02 01 02 02 01 02 02 01 02   ................
|   1440: 02 01 02 02 01 02 02 01 02 02 01 02 02 01 02 02   ................
|   1456: 01 02 02 01 02 02 01 02 02 01 02 02 01 02 02 01   ................
|   1472: 02 02 01 02 02 01 02 02 01 02 02 01 02 02 01 02   ................
|   1488: 02 01 02 02 01 02 02 01 02 02 01 02 02 01 02 02   ................
|   1504: 01 02 02 01 02 02 01 02 02 01 02 02 01 02 02 01   ................
|   1520: 02 02 01 02 02 01 02 02 01 02 02 01 02 02 01 02   ................
|   1536: 02 01 02 02 01 02 02 01 02 02 01 02 02 01 02 02   ................
|   1552: 01 02 02 01 02 02 01 02 02 01 02 02 01 02 02 01   ................
|   1568: 02 02 01 02 02 01 02 02 01 02 02 01 02 02 01 02   ................
|   1584: 02 01 02 02 01 02 02 01 02 02 01 02 02 01 02 02   ................
|   1600: 01 02 02 01 02 02 01 02 02 01 02 02 01 02 02 01   ................
|   1616: 02 02 01 02 02 01 02 02 01 02 02 01 02 02 01 02   ................
|   1632: 02 01 02 02 01 02 02 01 02 02 01 02 02 01 02 02   ................
|   1648: 01 02 02 01 02 02 01 02 02 01 02 02 01 02 02 01   ................
|   1664: 02 02 01 02 02 01 02 02 01 02 02 01 02 02 01 02   ................
|   1680: 02 01 02 02 01 02 02 01 02 02 01 02 02 01 02 02   ................
|   1696: 01 02 02 01 02 02 01 02 02 01 02 02 01 02 02 01   ................
|   1712: 02 02 01 02 02 01 02 02 01 02 02 01 02 02 01 02   ................
|   1728: 02 01 02 02 01 02 02 01 02 02 01 02 02 01 02 02   ................
|   1744: 01 02 02 01 02 02 01 02 02 01 02 02 01 02 02 01   ................
|   1760: 02 02 01 02 02 01 02 02 01 02 02 01 02 02 01 02   ................
|   1776: 02 01 02 02 01 02 02 01 02 02 01 02 02 01 02 02   ................
|   1792: 01 02 02 01 02 02 01 02 02 01 02 02 01 02 02 01   ................
|   1808: 02 02 01 02 02 01 02 02 01 02 02 01 02 02 01 02   ................
|   1824: 02 01 02 02 01 02 02 01 02 02 01 02 02 01 02 02   ................
|   1840: 01 02 02 01 02 02 01 02 02 01 02 02 01 02 02 01   ................
|   1856: 02 02 01 02 02 01 02 02 01 02 02 01 02 02 01 02   ................
|   1872: 02 01 02 02 01 02 02 01 02 02 01 02 02 01 02 02   ................
|   1888: 01 02 02 01 02 02 01 02 02 01 02 02 01 02 02 01   ................
|   1904: 02 02 01 02 02 01 02 02 01 02 02 01 02 02 01 02   ................
|   1920: 02 01 02 02 01 02 02 01 02 02 01 02 02 01 02 02   ................
|   1936: 01 02 02 01 02 02 01 02 02 01 02 02 01 02 02 01   ................
|   1952: 02 02 01 02 02 01 02 02 01 02 02 01 02 02 01 02   ................
|   1968: 02 01 02 02 01 02 02 01 02 02 01 02 02 01 02 02   ................
|   1984: 01 02 02 01 02 02 01 02 02 01 02 02 01 02 02 01   ................
|   2000: 02 02 01 02 02 01 02 02 01 02 02 01 02 02 01 02   ................
|   2016: 02 01 02 02 01 02 02 01 02 02 01 02 02 01 02 02   ................
|   2032: 01 02 02 01 02 02 01 02 02 01 02 02 01 02 02 01   ................
|   2048: 02 02 01 02 02 01 02 02 01 02 02 01 02 02 01 02   ................
|   2064: 02 01 02 02 01 02 02 01 02 02 01 02 02 01 02 02   ................
|   2080: 01 02 02 01 02 02 01 02 02 01 02 02 01 02 02 01   ................
|   2096: 02 02 01 02 02 01 02 02 01 02 02 01 02 02 01 02   ................
|   2112: 02 01 02 02 01 02 02 01 02 02 01 02 02 01 02 02   ................
|   2128: 01 02 02 01 02 02 01 02 02 01 02 02 01 02 02 01   ................
|   2144: 02 02 01 02 02 01 02 02 01 02 02 01 02 02 01 02   ................
|   2160: 02 01 02 02 01 02 02 01 02 02 01 02 02 01 02 02   ................
|   2176: 01 02 02 01 02 02 01 02 02 01 02 02 01 02 02 01   ................
|   2192: 02 02 01 02 02 01 02 02 01 02 02 01 02 02 01 02   ................
|   2208: 02 01 02 02 01 02 02 01 02 02 01 02 02 01 02 02   ................
|   2224: 01 02 02 01 02 02 01 02 02 01 02 02 01 02 02 01   ................
|   2240: 02 02 01 02 02 01 02 02 01 02 02 01 02 02 01 02   ................
|   2256: 02 01 02 02 01 02 02 01 02 02 01 02 02 01 02 02   ................
|   2272: 01 02 02 01 02 02 01 02 02 01 02 02 01 02 02 01   ................
|   2288: 02 02 01 02 02 01 02 02 01 02 02 01 02 02 01 02   ................
|   2304: 02 01 02 02 01 02 02 01 02 02 01 02 02 01 02 02   ................
|   2320: 01 02 02 01 02 02 01 02 02 01 02 02 01 02 02 01   ................
|   2336: 02 02 01 02 02 01 02 02 01 02 02 01 02 02 01 02   ................
|   2352: 02 01 02 02 01 02 02 01 02 02 01 02 02 01 02 02   ................
|   2368: 01 02 02 01 02 02 01 02 02 01 02 02 01 02 02 01   ................
|   2384: 02 02 01 02 02 01 02 02 01 02 02 01 02 02 01 02   ................
|   2400: 02 01 02 02 01 02 02 01 02 02 01 02 02 01 02 02   ................
|   2416: 01 02 02 01 02 02 01 02 02 01 02 02 01 02 02 01   ................
|   2432: 02 02 01 02 02 01 02 02 01 02 02 01 02 02 01 02   ................
|   2448: 02 01 02 02 01 02 02 01 02 02 01 02 02 01 02 02   ................
|   2464: 01 02 02 01 02 02 01 02 02 01 02 02 01 02 02 01   ................
|   2480: 02 02 01 02 02 01 02 02 01 02 02 01 02 02 01 02   ................
|   2496: 02 01 02 02 01 02 02 01 02 02 01 02 02 01 02 02   ................
|   2512: 01 02 02 01 02 02 01 02 02 01 02 02 01 02 02 01   ................
|   2528: 02 02 01 02 02 01 02 02 01 02 02 01 02 02 01 02   ................
|   2544: 02 01 02 02 01 02 02 01 02 02 01 02 02 01 02 02   ................
|   2560: 01 02 02 01 02 02 01 02 02 01 02 02 01 02 02 01   ................
|   2576: 02 02 01 02 02 01 02 02 01 02 02 01 02 02 01 02   ................
|   2592: 02 01 02 02 01 02 02 01 02 02 01 02 02 01 02 02   ................
|   2608: 01 02 02 01 02 02 01 02 02 01 02 02 01 02 02 01   ................
|   2624: 02 02 01 02 02 01 02 02 01 02 02 01 02 02 01 02   ................
|   2640: 02 01 02 02 01 02 02 01 02 02 01 02 02 01 02 02   ................
|   2656: 01 02 02 01 02 02 01 02 02 01 02 02 01 02 02 01   ................
|   2672: 02 02 01 02 02 01 02 02 01 02 02 01 02 02 01 02   ................
|   2688: 02 01 02 02 01 02 02 01 02 02 01 02 02 01 02 02   ................
|   2704: 01 02 02 01 02 02 01 02 02 01 02 02 01 02 02 01   ................
|   2720: 02 02 01 02 02 01 02 02 01 02 02 01 02 02 01 02   ................
|   2736: 02 01 02 02 01 02 02 01 02 02 01 02 02 01 02 02   ................
|   2752: 01 02 02 01 02 02 01 02 02 01 02 02 01 02 02 01   ................
|   2768: 02 02 01 02 02 01 02 02 01 02 02 01 02 02 01 02   ................
|   2784: 02 01 02 02 01 02 02 01 02 02 01 02 02 01 02 02   ................
|   2800: 01 02 02 01 02 02 01 02 02 01 02 02 01 02 02 01   ................
|   2816: 02 02 01 02 02 01 02 02 01 02 02 01 02 02 01 02   ................
|   2832: 02 01 02 02 01 02 02 01 02 02 01 02 02 01 02 02   ................
|   2848: 01 02 02 01 02 02 01 02 02 01 02 02 01 02 02 01   ................
|   2864: 02 02 01 02 02 01 02 02 01 02 02 01 02 02 01 02   ................
|   2880: 02 01 02 02 01 02 02 01 02 02 01 02 02 01 02 02   ................
|   2896: 01 02 02 01 02 02 01 02 02 01 02 02 01 02 02 01   ................
|   2912: 02 02 01 02 02 01 02 02 01 02 02 01 02 02 01 02   ................
|   2928: 02 01 02 02 01 02 02 01 02 02 01 02 02 01 02 02   ................
|   2944: 01 02 02 01 02 02 01 02 02 01 02 02 01 02 02 01   ................
|   2960: 02 02 01 02 02 01 02 02 01 02 02 01 02 02 01 02   ................
|   2976: 02 01 02 02 01 02 02 01 02 02 01 02 02 01 02 02   ................
|   2992: 01 02 02 01 02 02 01 02 02 01 02 02 01 02 02 01   ................
|   3008: 02 02 01 02 02 01 02 02 01 02 02 01 02 02 01 02   ................
|   3024: 02 01 02 02 01 02 02 01 02 02 01 02 02 01 02 02   ................
|   3040: 01 02 02 01 02 02 01 02 02 01 02 02 01 02 02 01   ................
|   3056: 02 02 01 02 02 01 02 02 01 02 02 01 02 02 01 02   ................
|   3072: 02 01 02 02 01 02 02 01 02 02 01 02 02 01 02 02   ................
|   3088: 01 02 02 01 02 02 01 02 02 01 02 02 01 02 02 01   ................
|   3104: 02 02 01 02 02 01 02 02 01 02 02 01 02 02 01 02   ................
|   3120: 02 01 02 02 01 02 02 01 02 02 01 02 02 01 02 02   ................
|   3136: 01 02 02 01 02 02 01 02 02 01 02 02 01 02 02 01   ................
|   3152: 02 02 01 02 02 01 02 02 01 02 02 01 02 02 01 02   ................
|   3168: 02 01 02 02 01 02 02 01 02 02 01 02 02 01 02 02   ................
|   3184: 01 02 02 01 02 02 01 02 02 01 02 02 01 02 02 01   ................
|   3200: 02 02 01 02 02 01 02 02 01 02 02 01 02 02 01 02   ................
|   3216: 02 01 02 02 01 02 02 01 02 02 01 02 02 01 02 02   ................
|   3232: 01 02 02 01 02 02 01 02 02 01 02 02 01 02 02 01   ................
|   3248: 02 02 01 02 02 01 02 02 01 02 02 01 02 02 01 02   ................
|   3264: 02 01 02 02 01 02 02 01 02 02 01 02 02 01 02 02   ................
|   3280: 01 02 02 01 02 02 01 02 02 01 02 02 01 02 02 01   ................
|   3296: 02 02 01 02 02 01 02 02 01 02 02 01 02 02 01 02   ................
|   3312: 02 01 02 02 01 02 02 01 02 02 01 02 02 01 02 02   ................
|   3328: 01 02 02 01 02 02 01 02 02 01 02 02 01 02 02 01   ................
|   3344: 02 02 01 02 02 01 02 02 01 02 02 01 02 02 01 02   ................
|   3360: 02 01 02 02 01 02 02 01 02 02 01 02 02 01 02 02   ................
|   3376: 01 02 02 01 02 02 01 02 02 01 02 02 01 02 02 01   ................
|   3392: 02 02 01 02 02 01 02 02 01 02 02 01 02 02 01 02   ................
|   3408: 02 01 02 02 01 02 02 01 02 02 01 02 02 01 02 02   ................
|   3424: 01 02 02 01 02 02 01 02 02 01 02 02 01 02 02 01   ................
|   3440: 02 02 01 02 02 01 02 02 01 02 02 01 02 02 01 02   ................
|   3456: 02 01 02 02 01 02 02 01 02 02 01 02 02 01 02 02   ................
|   3472: 01 02 02 01 02 02 01 02 02 01 02 02 01 02 02 01   ................
|   3488: 02 02 01 02 02 01 02 02 01 02 02 01 02 02 01 02   ................
|   3504: 02 01 02 02 01 02 02 01 02 02 01 02 02 01 02 02   ................
|   3520: 01 02 02 01 02 02 01 02 02 01 02 02 01 02 02 01   ................
|   3536: 02 02 01 02 02 01 02 02 01 02 02 01 02 02 01 02   ................
|   3552: 02 01 02 02 01 02 02 01 02 02 01 02 02 01 02 02   ................
|   3568: 01 02 02 01 02 02 01 02 02 01 02 02 01 02 02 01   ................
|   3584: 02 02 01 02 02 01 02 02 01 02 02 01 02 02 01 02   ................
|   3600: 02 01 02 02 01 02 02 01 02 02 01 02 02 01 02 02   ................
|   3616: 01 02 02 01 02 02 01 02 02 01 02 02 01 02 02 01   ................
|   3632: 02 02 01 02 02 01 02 02 01 02 02 01 02 02 01 02   ................
|   3648: 02 01 02 02 01 02 02 01 02 02 01 02 02 01 02 02   ................
|   3664: 01 02 02 01 02 02 01 02 02 01 02 02 01 02 02 01   ................
|   3680: 02 02 01 02 02 01 02 02 01 02 02 01 02 02 01 02   ................
|   3696: 02 01 02 02 01 02 02 01 02 02 01 02 02 01 02 02   ................
|   3712: 01 02 02 01 02 02 01 02 02 01 02 02 01 02 02 01   ................
|   3728: 02 02 01 02 02 01 02 02 01 02 02 01 02 02 01 02   ................
|   3744: 02 01 02 02 01 02 02 01 02 02 01 02 02 01 02 02   ................
|   3760: 01 02 02 01 02 02 01 02 02 01 02 02 01 02 02 01   ................
|   3776: 02 02 01 02 02 01 02 02 01 02 02 01 02 02 01 02   ................
|   3792: 02 01 02 02 01 02 02 01 02 02 01 02 02 01 02 02   ................
|   3808: 01 02 02 01 02 02 01 02 02 01 02 02 01 02 02 01   ................
|   3824: 02 02 01 02 02 01 02 02 01 02 02 01 02 02 01 02   ................
|   3840: 02 01 02 02 01 02 02 01 02 02 01 02 02 01 02 02   ................
|   3856: 01 02 02 01 02 02 01 02 02 01 02 02 01 02 02 01   ................
|   3872: 02 02 01 02 02 01 02 02 01 02 02 01 02 02 01 02   ................
|   3888: 02 01 02 02 01 02 02 01 02 02 01 02 02 01 02 02   ................
|   3904: 01 02 02 01 02 02 01 02 02 01 02 02 01 02 02 01   ................
|   3920: 02 02 01 02 02 01 02 02 01 02 02 01 02 02 01 02   ................
|   3936: 02 01 02 02 01 02 02 01 02 02 01 02 02 01 02 02   ................
|   3952: 01 02 02 01 02 02 01 02 02 01 02 02 01 02 02 01   ................
|   3968: 02 02 01 02 02 01 02 02 01 02 02 01 02 02 01 02   ................
|   3984: 02 01 02 02 01 02 02 01 02 02 01 02 02 01 02 02   ................
|   4000: 01 02 02 01 02 02 01 02 02 01 02 02 01 02 02 01   ................
|   4016: 02 02 01 02 02 01 02 02 01 02 02 01 02 02 01 02   ................
|   4032: 02 01 02 02 01 02 02 01 02 02 01 02 02 01 02 02   ................
|   4048: 01 02 02 01 02 02 01 02 02 01 02 02 01 02 02 01   ................
|   4064: 02 02 01 02 02 01 02 02 01 02 02 01 02 02 01 02   ................
|   4080: 02 01 02 02 01 02 02 01 02 02 01 02 02 01 02 04   ................
| page 17 offset 65536
|      0: 0d 00 00 00 01 00 24 00 00 24 00 00 00 00 00 00   ......$..$......
|     32: 00 00 00 00 9f 54 84 80 80 80 80 02 04 00 bf 2c   .....T.........,
|     48: 00 05 0d d2 02 8a 45 02 02 01 02 02 03 30 78 31   ......E......0x1
|     64: 01 02 03 03 01 30 0a 02 03 04 01 30 64 02 03 05   .....0.....0d...
|     80: 01 30 87 68 02 03 05 01 31 87 69 02 03 05 01 32   .0.h....1.i....2
|     96: 87 6a 02 03 05 01 33 87 6b 02 03 05 01 34 87 6c   .j....3.k....4.l
|    112: 02 03 05 01 35 87 6d 02 03 05 01 36 87 6e 02 03   ....5.m....6.n..
|    128: 05 01 37 87 6f 02 03 05 01 38 87 70 02 03 05 01   ..7.o....8.p....
|    144: 39 87 71 02 03 04 01 31 65 02 03 05 01 30 87 72   9.q....1e....0.r
|    160: 02 03 05 01 31 87 73 02 03 05 01 32 87 74 02 03   ....1.s....2.t..
|    176: 05 01 33 87 75 02 03 05 01 34 87 76 02 03 05 01   ..3.u....4.v....
|    192: 35 87 77 02 03 05 01 36 87 78 02 03 05 01 37 87   5.w....6.x....7.
|    208: 79 02 03 05 01 38 87 7a 02 03 05 01 39 87 7b 02   y....8.z....9...
|    224: 03 04 01 32 66 02 03 05 01 30 87 7c 02 03 05 01   ...2f....0.|....
|    240: 31 87 7d 02 03 05 01 32 87 7e 02 03 05 01 33 87   1......2.~....3.
|    256: 7f 02 03 05 01 34 88 00 02 03 05 01 35 88 01 02   .....4......5...
|    272: 03 05 01 36 88 02 02 03 05 01 37 88 03 02 03 05   ...6......7.....
|    288: 01 38 88 04 02 03 05 01 39 88 05 02 03 04 01 33   .8......9......3
|    304: 67 02 03 05 01 30 88 06 02 03 05 01 31 88 07 02   g....0......1...
|    320: 03 05 01 32 88 08 02 03 05 01 33 88 09 02 03 05   ...2......3.....
|    336: 01 34 88 0a 02 03 05 01 35 88 0b 02 03 05 01 36   .4......5......6
|    352: 88 0c 02 03 05 01 37 88 0d 02 03 05 01 38 88 0e   ......7......8..
|    368: 02 03 05 01 39 88 0f 02 03 04 01 34 68 02 03 05   ....9......4h...
|    384: 01 30 88 10 02 03 05 01 31 88 11 02 03 05 01 32   .0......1......2
|    400: 88 12 02 03 05 01 33 88 13 02 03 05 01 34 88 14   ......3......4..
|    416: 02 03 05 01 35 88 15 02 03 05 01 36 88 16 02 03   ....5......6....
|    432: 05 01 37 88 17 02 03 05 01 38 88 18 02 03 05 01   ..7......8......
|    448: 39 88 19 02 03 04 01 35 69 02 03 05 01 30 88 1a   9......5i....0..
|    464: 02 03 05 01 31 88 1b 02 03 05 01 32 88 1c 02 03   ....1......2....
|    480: 05 01 33 88 1d 02 03 05 01 34 88 1e 02 03 05 01   ..3......4......
|    496: 35 88 1f 02 03 05 01 36 88 20 02 03 05 01 37 88   5......6. ....7.
|    512: 21 02 03 05 01 38 88 22 02 03 05 01 39 88 23 02   !....8......9.#.
|    528: 03 04 01 36 6a 02 03 05 01 30 88 24 02 03 05 01   ...6j....0.$....
|    544: 31 88 25 02 03 05 01 32 88 26 02 03 05 01 33 88   1.%....2.&....3.
|    560: 27 02 03 05 01 34 88 28 02 03 05 01 35 88 29 02   '....4.(....5.).
|    576: 03 05 01 36 88 2a 02 03 05 01 37 88 2b 02 03 05   ...6.*....7.+...
|    592: 01 38 88 2c 02 03 05 01 39 88 2d 02 03 04 01 37   .8.,....9.-....7
|    608: 6b 02 03 05 01 30 88 2e 02 03 05 01 31 88 2f 02   k....0......1./.
|    624: 03 05 01 32 88 30 02 03 05 01 33 88 31 02 03 05   ...2.0....3.1...
|    640: 01 34 88 32 02 03 05 01 35 88 33 02 03 05 01 36   .4.2....5.3....6
|    656: 88 34 02 03 05 01 37 88 35 02 03 05 01 38 88 36   .4....7.5....8.6
|    672: 02 03 05 01 39 88 37 02 03 04 01 38 6c 02 03 05   ....9.7....8l...
|    688: 01 30 88 38 02 03 05 01 31 88 39 02 03 05 01 32   .0.8....1.9....2
|    704: 88 3a 02 03 05 01 33 88 3b 02 03 05 01 34 88 3c   .:....3.;....4.<
|    720: 02 03 05 01 35 88 3d 02 03 05 01 36 88 3e 02 03   ....5.=....6.>..
|    736: 05 01 37 88 3f 02 03 05 01 38 88 40 02 03 05 01   ..7.?....8.@....
|    752: 39 88 41 02 03 04 01 39 6d 02 03 05 01 30 88 42   9.A....9m....0.B
|    768: 02 03 05 01 31 88 43 02 03 05 01 32 88 44 02 03   ....1.C....2.D..
|    784: 05 01 33 88 45 02 03 05 01 34 88 46 02 03 05 01   ..3.E....4.F....
|    800: 35 88 47 02 03 05 01 36 88 48 02 03 05 01 37 88   5.G....6.H....7.
|    816: 49 02 03 05 01 38 88 4a 02 03 05 01 39 88 4b 02   I....8.J....9.K.
|    832: 03 03 01 31 0b 02 03 04 01 30 6e 02 03 05 01 30   ...1.....0n....0
|    848: 88 4c 02 03 05 01 31 88 4d 02 03 05 01 32 88 4e   .L....1.M....2.N
|    864: 02 03 05 01 33 88 4f 02 03 05 01 34 88 50 02 03   ....3.O....4.P..
|    880: 05 01 35 88 51 02 03 05 01 36 88 52 02 03 05 01   ..5.Q....6.R....
|    896: 37 88 53 02 03 05 01 38 88 54 02 03 05 01 39 88   7.S....8.T....9.
|    912: 55 02 03 04 01 31 6f 02 03 05 01 30 88 56 02 03   U....1o....0.V..
|    928: 05 01 31 88 57 02 03 05 01 32 88 58 02 03 05 01   ..1.W....2.X....
|    944: 33 88 59 02 03 05 01 34 88 5a 02 03 05 01 35 88   3.Y....4.Z....5.
|    960: 5b 02 03 05 01 36 88 5c 02 03 05 01 37 88 5d 02   [....6......7.].
|    976: 03 05 01 38 88 5e 02 03 05 01 39 88 5f 02 03 04   ...8.^....9._...
|    992: 01 32 70 02 03 05 01 30 88 60 02 03 05 01 31 88   .2p....0.`....1.
|   1008: 61 02 03 05 01 32 88 62 02 03 05 01 33 88 63 02   a....2.b....3.c.
|   1024: 03 05 01 34 88 64 02 03 05 01 35 88 65 02 03 05   ...4.d....5.e...
|   1040: 01 36 88 66 02 03 05 01 37 88 67 02 03 05 01 38   .6.f....7.g....8
|   1056: 88 68 02 03 05 01 39 88 69 02 03 04 01 33 71 02   .h....9.i....3q.
|   1072: 03 05 01 30 88 6a 02 03 05 01 31 88 6b 02 03 05   ...0.j....1.k...
|   1088: 01 32 88 6c 02 03 05 01 33 88 6d 02 03 05 01 34   .2.l....3.m....4
|   1104: 88 6e 02 03 05 01 35 88 6f 02 03 05 01 36 88 70   .n....5.o....6.p
|   1120: 02 03 05 01 37 88 71 02 03 05 01 38 88 72 02 03   ....7.q....8.r..
|   1136: 05 01 39 88 73 02 03 04 01 34 72 02 03 05 01 30   ..9.s....4r....0
|   1152: 88 74 02 03 05 01 31 88 75 02 03 05 01 32 88 76   .t....1.u....2.v
|   1168: 02 03 05 01 33 88 77 02 03 05 01 34 88 78 02 03   ....3.w....4.x..
|   1184: 05 01 35 88 79 02 03 05 01 36 88 7a 02 03 05 01   ..5.y....6.z....
|   1200: 37 88 7b 02 03 05 01 38 88 7c 02 03 05 01 39 88   7......8.|....9.
|   1216: 7d 02 03 04 01 35 73 02 03 05 01 30 88 7e 02 03   .....5s....0.~..
|   1232: 05 01 31 88 7f 02 03 05 01 32 89 00 02 03 05 01   ..1......2......
|   1248: 33 89 01 02 03 05 01 34 89 02 02 03 05 01 35 89   3......4......5.
|   1264: 03 02 03 05 01 36 89 04 02 03 05 01 37 89 05 02   .....6......7...
|   1280: 03 05 01 38 89 06 02 03 05 01 39 89 07 02 03 04   ...8......9.....
|   1296: 01 36 74 02 03 05 01 30 89 08 02 03 05 01 31 89   .6t....0......1.
|   1312: 09 02 03 05 01 32 89 0a 02 03 05 01 33 89 0b 02   .....2......3...
|   1328: 03 05 01 34 89 0c 02 03 05 01 35 89 0d 02 03 05   ...4......5.....
|   1344: 01 36 89 0e 02 03 05 01 37 89 0f 02 03 05 01 38   .6......7......8
|   1360: 89 10 02 03 05 01 39 89 11 02 03 04 01 37 75 02   ......9......7u.
|   1376: 03 05 01 30 89 12 02 03 05 01 31 89 13 02 03 05   ...0......1.....
|   1392: 01 32 89 14 02 03 05 01 33 89 15 02 03 05 01 34   .2......3......4
|   1408: 89 16 02 03 05 01 35 89 17 02 03 05 01 36 89 18   ......5......6..
|   1424: 02 03 05 01 37 89 19 02 03 05 01 38 89 1a 02 03   ....7......8....
|   1440: 05 01 39 89 1b 02 03 04 01 38 76 02 03 05 01 30   ..9......8v....0
|   1456: 89 1c 02 03 05 01 31 89 1d 02 03 05 01 32 89 1e   ......1......2..
|   1472: 02 03 05 01 33 89 1f 02 03 05 01 34 89 20 02 03   ....3......4. ..
|   1488: 05 01 35 89 21 02 03 05 01 36 89 22 02 03 05 01   ..5.!....6......
|   1504: 37 89 23 02 03 05 01 38 89 24 02 03 05 01 39 89   7.#....8.$....9.
|   1520: 25 02 03 04 01 39 77 02 03 05 01 30 89 26 02 03   %....9w....0.&..
|   1536: 05 01 31 89 27 02 03 05 01 32 89 28 02 03 05 01   ..1.'....2.(....
|   1552: 33 89 29 02 03 05 01 34 89 2a 02 03 05 01 35 89   3.)....4.*....5.
|   1568: 2b 02 03 05 01 36 89 2c 02 03 05 01 37 89 2d 02   +....6.,....7.-.
|   1584: 03 05 01 38 89 2e 02 03 05 01 39 89 2f 02 03 03   ...8......9./...
|   1600: 01 32 0c 02 03 04 01 30 78 02 03 05 01 30 89 30   .2.....0x....0.0
|   1616: 02 03 05 01 31 89 31 02 03 05 01 32 89 32 02 03   ....1.1....2.2..
|   1632: 05 01 33 89 33 02 03 05 01 34 89 34 02 03 05 01   ..3.3....4.4....
|   1648: 35 89 35 02 03 05 01 36 89 36 02 03 05 01 37 89   5.5....6.6....7.
|   1664: 37 02 03 05 01 38 89 38 02 03 05 01 39 89 39 02   7....8.8....9.9.
|   1680: 03 04 01 31 79 02 03 05 01 30 89 3a 02 03 05 01   ...1y....0.:....
|   1696: 31 89 3b 02 03 05 01 32 89 3c 02 03 05 01 33 89   1.;....2.<....3.
|   1712: 3d 02 03 05 01 34 89 3e 02 03 05 01 35 89 3f 02   =....4.>....5.?.
|   1728: 03 05 01 36 89 40 02 03 05 01 37 89 41 02 03 05   ...6.@....7.A...
|   1744: 01 38 89 42 02 03 05 01 39 89 43 02 03 04 01 32   .8.B....9.C....2
|   1760: 7a 02 03 05 01 30 89 44 02 03 05 01 31 89 45 02   z....0.D....1.E.
|   1776: 03 05 01 32 89 46 02 03 05 01 33 89 47 02 03 05   ...2.F....3.G...
|   1792: 01 34 89 48 02 03 05 01 35 89 49 02 03 05 01 36   .4.H....5.I....6
|   1808: 89 4a 02 03 05 01 37 89 4b 02 03 05 01 38 89 4c   .J....7.K....8.L
|   1824: 02 03 05 01 39 89 4d 02 03 04 01 33 7b 02 03 05   ....9.M....3....
|   1840: 01 30 89 4e 02 03 05 01 31 89 4f 02 03 05 01 32   .0.N....1.O....2
|   1856: 89 50 02 03 05 01 33 89 51 02 03 05 01 34 89 52   .P....3.Q....4.R
|   1872: 02 03 05 01 35 89 53 02 03 05 01 36 89 54 02 03   ....5.S....6.T..
|   1888: 05 01 37 89 55 02 03 05 01 38 89 56 02 03 05 01   ..7.U....8.V....
|   1904: 39 89 57 02 03 04 01 34 7c 02 03 05 01 30 89 58   9.W....4|....0.X
|   1920: 02 03 05 01 31 89 59 02 03 05 01 32 89 5a 02 03   ....1.Y....2.Z..
|   1936: 05 01 33 89 5b 02 03 05 01 34 89 5c 02 03 05 01   ..3.[....4......
|   1952: 35 89 5d 02 03 05 01 36 89 5e 02 03 05 01 37 89   5.]....6.^....7.
|   1968: 5f 02 03 05 01 38 89 60 02 03 05 01 39 89 61 02   _....8.`....9.a.
|   1984: 03 04 01 35 7d 02 03 05 01 30 89 62 02 03 05 01   ...5.....0.b....
|   2000: 31 89 63 02 03 05 01 32 89 64 02 03 05 01 33 89   1.c....2.d....3.
|   2016: 65 02 03 05 01 34 89 66 02 03 05 01 35 89 67 02   e....4.f....5.g.
|   2032: 03 05 01 36 89 68 02 03 05 01 37 89 69 02 03 05   ...6.h....7.i...
|   2048: 01 38 89 6a 02 03 05 01 39 89 6b 02 03 04 01 36   .8.j....9.k....6
|   2064: 7e 02 03 05 01 30 89 6c 02 03 05 01 31 89 6d 02   ~....0.l....1.m.
|   2080: 03 05 01 32 89 6e 02 03 05 01 33 89 6f 02 03 05   ...2.n....3.o...
|   2096: 01 34 89 70 02 03 05 01 35 89 71 02 03 05 01 36   .4.p....5.q....6
|   2112: 89 72 02 03 05 01 37 89 73 02 03 05 01 38 89 74   .r....7.s....8.t
|   2128: 02 03 05 01 39 89 75 02 03 04 01 37 7f 02 03 05   ....9.u....7....
|   2144: 01 30 89 76 02 03 05 01 31 89 77 02 03 05 01 32   .0.v....1.w....2
|   2160: 89 78 02 03 05 01 33 89 79 02 03 05 01 34 89 7a   .x....3.y....4.z
|   2176: 02 03 05 01 35 89 7b 02 03 05 01 36 89 7c 02 03   ....5......6.|..
|   2192: 05 01 37 89 7d 02 03 05 01 38 89 7e 02 03 05 01   ..7......8.~....
|   2208: 39 89 7f 02 03 04 01 38 81 00 02 03 05 01 30 8a   9......8......0.
|   2224: 00 02 03 05 01 31 8a 01 02 03 05 01 32 8a 02 02   .....1......2...
|   2240: 03 05 01 33 8a 03 02 03 05 01 34 8a 04 02 03 05   ...3......4.....
|   2256: 01 35 8a 05 02 03 05 01 36 8a 06 02 03 05 01 37   .5......6......7
|   2272: 8a 07 02 03 05 01 38 8a 08 02 03 05 01 39 8a 09   ......8......9..
|   2288: 02 03 04 01 39 81 01 02 03 05 01 30 8a 0a 02 03   ....9......0....
|   2304: 05 01 31 8a 0b 02 03 05 01 32 8a 0c 02 03 05 01   ..1......2......
|   2320: 33 8a 0d 02 03 05 01 34 8a 0e 02 03 05 01 35 8a   3......4......5.
|   2336: 0f 02 03 05 01 36 8a 10 02 03 05 01 37 8a 11 02   .....6......7...
|   2352: 03 05 01 38 8a 12 02 03 05 01 39 8a 13 02 03 03   ...8......9.....
|   2368: 01 33 0d 02 03 04 01 30 81 02 02 03 05 01 30 8a   .3.....0......0.
|   2384: 14 02 03 05 01 31 8a 15 02 03 05 01 32 8a 16 02   .....1......2...
|   2400: 03 05 01 33 8a 17 02 03 05 01 34 8a 18 02 03 05   ...3......4.....
|   2416: 01 35 8a 19 02 03 05 01 36 8a 1a 02 03 05 01 37   .5......6......7
|   2432: 8a 1b 02 03 05 01 38 8a 1c 02 03 05 01 39 8a 1d   ......8......9..
|   2448: 02 03 04 01 31 81 03 02 03 05 01 30 8a 1e 02 03   ....1......0....
|   2464: 05 01 31 8a 1f 02 03 05 01 32 8a 20 02 03 05 01   ..1......2. ....
|   2480: 33 8a 21 02 03 05 01 34 8a 22 02 03 05 01 35 8a   3.!....4......5.
|   2496: 23 02 03 05 01 36 8a 24 02 03 05 01 37 8a 25 02   #....6.$....7.%.
|   2512: 03 05 01 38 8a 26 02 03 05 01 39 8a 27 02 03 04   ...8.&....9.'...
|   2528: 01 32 81 04 02 03 05 01 30 8a 28 02 03 05 01 31   .2......0.(....1
|   2544: 8a 29 02 03 05 01 32 8a 2a 02 03 05 01 33 8a 2b   .)....2.*....3.+
|   2560: 02 03 05 01 34 8a 2c 02 03 05 01 35 8a 2d 02 03   ....4.,....5.-..
|   2576: 05 01 36 8a 2e 02 03 05 01 37 8a 2f 02 03 05 01   ..6......7./....
|   2592: 38 8a 30 02 03 05 01 39 8a 31 02 03 04 01 33 81   8.0....9.1....3.
|   2608: 05 02 03 05 01 30 8a 32 02 03 05 01 31 8a 33 02   .....0.2....1.3.
|   2624: 03 05 01 32 8a 34 02 03 05 01 33 8a 35 02 03 05   ...2.4....3.5...
|   2640: 01 34 8a 36 02 03 05 01 35 8a 37 02 03 05 01 36   .4.6....5.7....6
|   2656: 8a 38 02 03 05 01 37 8a 39 02 03 05 01 38 8a 3a   .8....7.9....8.:
|   2672: 02 03 05 01 39 8a 3b 02 03 04 01 34 81 06 02 03   ....9.;....4....
|   2688: 05 01 30 8a 3c 02 03 05 01 31 8a 3d 02 03 05 01   ..0.<....1.=....
|   2704: 32 8a 3e 02 03 05 01 33 8a 3f 02 03 05 01 34 8a   2.>....3.?....4.
|   2720: 40 02 03 05 01 35 8a 41 02 03 05 01 36 8a 42 02   @....5.A....6.B.
|   2736: 03 05 01 37 8a 43 02 03 05 01 38 8a 44 02 03 05   ...7.C....8.D...
|   2752: 01 39 8a 45 02 03 04 01 35 81 07 02 03 05 01 30   .9.E....5......0
|   2768: 8a 46 02 03 04 01 36 81 08 02 03 04 01 37 81 09   .F....6......7..
|   2784: 02 03 04 01 38 81 0a 02 03 04 01 39 81 0b 02 03   ....8......9....
|   2800: 03 01 34 0e 02 03 04 01 30 81 0c 02 03 04 01 31   ..4.....0......1
|   2816: 81 0d 02 03 04 01 32 81 0e 02 03 04 01 33 81 0f   ......2......3..
|   2832: 02 03 04 01 34 81 10 02 03 04 01 35 81 11 02 03   ....4......5....
|   2848: 04 01 36 81 12 02 03 04 01 37 81 13 02 03 04 01   ..6......7......
|   2864: 38 81 14 02 03 04 01 39 81 15 02 03 03 01 35 0f   8......9......5.
|   2880: 02 03 04 01 30 81 16 02 03 04 01 31 81 17 02 03   ....0......1....
|   2896: 04 01 32 81 18 02 03 04 01 33 81 19 02 03 04 01   ..2......3......
|   2912: 34 81 1a 02 03 04 01 35 81 1b 02 03 04 01 36 81   4......5......6.
|   2928: 1c 02 03 04 01 37 81 1d 02 03 04 01 38 81 1e 02   .....7......8...
|   2944: 03 04 01 39 81 1f 02 03 03 01 36 10 02 03 04 01   ...9......6.....
|   2960: 30 81 20 02 03 04 01 31 81 21 02 03 04 01 32 81   0. ....1.!....2.
|   2976: 22 02 03 04 01 33 81 23 02 03 04 01 34 81 24 02   .....3.#....4.$.
|   2992: 03 04 01 35 81 25 02 03 04 01 36 81 26 02 03 04   ...5.%....6.&...
|   3008: 01 37 81 27 02 03 04 01 38 81 28 02 03 04 01 39   .7.'....8.(....9
|   3024: 81 29 02 03 03 01 37 11 02 03 04 01 30 81 2a 02   .)....7.....0.*.
|   3040: 03 04 01 31 81 2b 02 03 04 01 32 81 2c 02 03 04   ...1.+....2.,...
|   3056: 01 33 81 2d 02 03 04 01 34 81 2e 02 03 04 01 35   .3.-....4......5
|   3072: 81 2f 02 03 04 01 36 81 30 02 03 04 01 37 81 31   ./....6.0....7.1
|   3088: 02 03 04 01 38 81 32 02 03 04 01 39 81 33 02 03   ....8.2....9.3..
|   3104: 03 01 38 12 02 03 04 01 30 81 34 02 03 04 01 31   ..8.....0.4....1
|   3120: 81 35 02 03 04 01 32 81 36 02 03 04 01 33 81 37   .5....2.6....3.7
|   3136: 02 03 04 01 34 81 38 02 03 04 01 35 81 39 02 03   ....4.8....5.9..
|   3152: 04 01 36 81 3a 02 03 04 01 37 81 3b 02 03 04 01   ..6.:....7.;....
|   3168: 38 81 3c 02 03 04 01 39 81 3d 02 03 03 01 39 13   8.<....9.=....9.
|   3184: 02 03 04 01 30 81 3e 02 03 04 01 31 81 3f 02 03   ....0.>....1.?..
|   3200: 04 01 32 81 40 02 03 04 01 33 81 41 02 03 04 01   ..2.@....3.A....
|   3216: 34 81 42 02 03 04 01 35 81 43 02 03 04 01 36 81   4.B....5.C....6.
|   3232: 44 02 03 04 01 37 81 45 02 03 04 01 38 81 46 02   D....7.E....8.F.
|   3248: 03 04 01 39 81 47 02 03 02 01 32 02 02 03 03 01   ...9.G....2.....
|   3264: 30 14 02 03 04 01 30 81 48 02 03 04 01 31 81 49   0.....0.H....1.I
|   3280: 02 03 04 01 32 81 4a 02 03 04 01 33 81 4b 02 03   ....2.J....3.K..
|   3296: 04 01 34 81 4c 02 03 04 01 35 81 4d 02 03 04 01   ..4.L....5.M....
|   3312: 36 81 4e 02 03 04 01 37 81 4f 02 03 04 01 38 81   6.N....7.O....8.
|   3328: 50 02 03 04 01 39 81 51 02 03 03 01 31 15 02 03   P....9.Q....1...
|   3344: 04 01 30 81 52 02 03 04 01 31 81 53 02 03 04 01   ..0.R....1.S....
|   3360: 32 81 54 02 03 04 01 33 81 55 02 03 04 01 34 81   2.T....3.U....4.
|   3376: 56 02 03 04 01 35 81 57 02 03 04 01 36 81 58 02   V....5.W....6.X.
|   3392: 03 04 01 37 81 59 02 03 04 01 38 81 5a 02 03 04   ...7.Y....8.Z...
|   3408: 01 39 81 5b 02 03 03 01 32 16 02 03 04 01 30 81   .9.[....2.....0.
|   3424: 5c 02 03 04 01 31 81 5d 02 03 04 01 32 81 5e 02   .....1.]....2.^.
|   3440: 03 04 01 33 81 5f 02 03 04 01 34 81 60 02 03 04   ...3._....4.`...
|   3456: 01 35 81 61 02 03 04 01 36 81 62 02 03 04 01 37   .5.a....6.b....7
|   3472: 81 63 02 03 04 01 38 81 64 02 03 04 01 39 81 65   .c....8.d....9.e
|   3488: 02 03 03 01 33 17 02 03 04 01 30 81 66 02 03 04   ....3.....0.f...
|   3504: 01 31 81 67 02 03 04 01 32 81 68 02 03 04 01 33   .1.g....2.h....3
|   3520: 81 69 02 03 04 01 34 81 6a 02 03 04 01 35 81 6b   .i....4.j....5.k
|   3536: 02 03 04 01 36 81 6c 02 03 04 01 37 81 6d 02 03   ....6.l....7.m..
|   3552: 04 01 38 81 6e 02 03 04 01 39 81 6f 02 03 03 01   ..8.n....9.o....
|   3568: 34 18 02 03 04 01 30 81 70 02 03 04 01 31 81 71   4.....0.p....1.q
|   3584: 02 03 ff ff ff ff 07 07 07 07 07 07 07 07 07 07   ................
|   3600: 06 07 07 07 07 07 07 07 07 07 07 06 07 07 07 07   ................
|   3616: 07 07 07 07 07 07 06 07 07 07 07 07 07 07 07 07   ................
|   3632: 07 06 07 07 07 07 07 07 07 07 07 07 06 07 07 07   ................
|   3648: 07 07 07 07 07 07 07 06 07 07 07 07 07 07 07 07   ................
|   3664: 07 07 06 07 07 07 07 07 07 07 07 07 07 06 07 07   ................
|   3680: 07 07 07 07 07 07 07 07 06 07 07 07 07 07 07 07   ................
|   3696: 07 07 07 06 06 07 07 07 07 07 07 07 07 07 07 06   ................
|   3712: 07 07 07 07 07 07 07 07 07 07 06 07 07 07 07 07   ................
|   3728: 07 07 07 07 07 06 07 07 07 07 07 07 07 07 07 07   ................
|   3744: 06 07 07 07 07 07 07 07 07 07 07 06 07 07 07 07   ................
|   3760: 07 07 07 07 07 07 06 07 07 07 07 07 07 07 07 07   ................
|   3776: 07 06 07 07 07 07 07 07 07 07 07 07 06 07 07 07   ................
|   3792: 07 07 07 07 07 07 07 06 07 07 07 07 07 07 07 07   ................
|   3808: 07 07 06 06 07 07 07 07 07 07 07 07 07 07 06 07   ................
|   3824: 07 07 07 07 07 07 07 07 07 06 07 07 07 07 07 07   ................
|   3840: 07 07 07 07 06 07 07 07 07 07 07 07 07 07 07 06   ................
|   3856: 07 07 07 07 07 07 07 07 07 07 06 07 07 07 07 07   ................
|   3872: 07 07 07 07 07 06 07 07 07 07 07 07 07 07 07 07   ................
|   3888: 06 07 07 07 07 07 07 07 07 07 07 07 07 07 07 07   ................
|   3904: 07 07 07 07 07 07 07 07 07 07 07 07 07 07 07 07   ................
|   3920: 07 06 07 07 07 07 07 07 07 07 07 07 07 07 07 07   ................
|   3936: 07 07 07 07 07 07 07 07 07 07 07 07 07 07 07 07   ................
|   3952: 07 07 07 07 07 07 07 07 07 07 07 07 07 07 07 07   ................
|   3968: 07 07 07 07 07 07 07 07 07 07 07 07 07 07 07 06   ................
|   3984: 07 07 07 07 07 07 07 07 07 07 06 07 07 07 07 07   ................
|   4000: 07 07 07 07 07 06 07 07 07 07 07 07 07 07 07 07   ................
|   4016: 06 07 07 07 07 07 07 07 07 07 07 06 07 07 07 07   ................
|   4032: 07 07 07 07 07 07 06 07 07 07 07 07 07 07 07 07   ................
|   4048: 07 06 06 07 07 07 07 07 07 07 07 07 07 06 07 07   ................
|   4064: 07 07 07 07 07 07 07 07 06 07 07 07 07 07 07 07   ................
|   4080: 07 07 07 06 07 07 07 07 07 07 07 07 07 07 06 07   ................
| end v4.db
  }]
} {}
do_catchsql_test 2.1 {
  SELECT count(*) FROM t WHERE t MATCH 'a';
} {1 {database disk image is malformed}}
sqlite3_test_control_pending_byte $pending_prev


# Bug 2026-07-03T19:16:18Z
#
do_test 3.0 {
  sqlite3 db {}
  db deserialize [decode_hexdb {
.open --hexdb
| size 24576 pagesize 4096 filename v2.db
| page 1 offset 0
|      0: 53 51 4c 69 74 65 20 66 6f 72 6d 61 74 20 33 00   SQLite format 3.
|     16: 10 00 01 01 00 40 20 20 00 00 00 05 00 00 00 06   .....@  ........
|     32: 00 00 00 00 00 00 00 00 00 00 00 06 00 00 00 04   ................
|     48: 00 00 00 00 00 00 00 00 00 00 00 01 00 00 00 00   ................
|     80: 00 00 00 00 00 00 00 00 00 00 00 00 00 00 00 05   ................
|     96: 00 2e 76 89 0d 00 00 00 06 0e 10 00 0f cd 0f 7a   ..v............z
|    112: 0f 12 0e be 0e 65 0e 10 00 00 00 00 00 00 00 00   .....e..........
|   3600: 53 06 06 17 1d 1d 01 7b 74 61 62 6c 65 74 5f 63   S.......tablet_c
|   3616: 6f 6e 66 69 67 74 5f 63 6f 6e 66 69 67 06 43 52   onfigt_config.CR
|   3632: 45 41 54 45 20 54 41 42 4c 45 20 27 74 5f 63 6f   EATE TABLE 't_co
|   3648: 6e 66 69 67 27 28 6b 20 50 52 49 4d 41 52 59 20   nfig'(k PRIMARY 
|   3664: 4b 45 59 2c 20 76 29 20 57 49 54 48 4f 55 54 20   KEY, v) WITHOUT 
|   3680: 52 4f 57 49 44 57 05 06 17 1f 1f 01 7f 74 61 62   ROWIDW.......tab
|   3696: 6c 65 74 5f 64 6f 63 73 69 7a 65 74 5f 64 6f 63   let_docsizet_doc
|   3712: 73 69 7a 65 05 43 52 45 41 54 45 20 54 41 42 4c   size.CREATE TABL
|   3728: 45 20 27 74 5f 64 6f 63 73 69 7a 65 27 28 69 64   E 't_docsize'(id
|   3744: 20 49 4e 54 45 47 45 52 20 50 52 49 4d 41 52 59    INTEGER PRIMARY
|   3760: 20 4b 45 59 2c 20 73 7a 20 42 4c 4f 42 29 52 04    KEY, sz BLOB)R.
|   3776: 06 17 1f 1f 01 75 74 61 62 6c 65 74 5f 63 6f 6e   .....utablet_con
|   3792: 74 65 6e 74 74 5f 63 6f 6e 74 65 6e 74 04 43 52   tentt_content.CR
|   3808: 45 41 54 45 20 54 41 42 4c 45 20 27 74 5f 63 6f   EATE TABLE 't_co
|   3824: 6e 74 65 6e 74 27 28 69 64 20 49 4e 54 45 47 45   ntent'(id INTEGE
|   3840: 52 20 50 52 49 4d 41 52 59 20 4b 45 59 2c 20 63   R PRIMARY KEY, c
|   3856: 30 29 66 03 07 17 17 17 01 81 2b 74 61 62 6c 65   0)f.......+table
|   3872: 74 5f 69 64 78 74 5f 69 64 78 03 43 52 45 41 54   t_idxt_idx.CREAT
|   3888: 45 20 54 41 42 4c 45 20 27 74 5f 69 64 78 27 28   E TABLE 't_idx'(
|   3904: 73 65 67 69 64 2c 20 74 65 72 6d 2c 20 70 67 6e   segid, term, pgn
|   3920: 6f 2c 20 50 52 49 4d 41 52 59 20 4b 45 59 28 73   o, PRIMARY KEY(s
|   3936: 65 67 69 64 2c 20 74 65 72 6d 29 29 20 57 49 54   egid, term)) WIT
|   3952: 48 4f 55 54 20 52 4f 57 49 44 51 02 06 17 19 19   HOUT ROWIDQ.....
|   3968: 01 7f 74 61 62 6c 65 74 5f 64 61 74 61 74 5f 64   ..tablet_datat_d
|   3984: 61 74 61 02 43 52 45 41 54 45 20 54 41 42 4c 45   ata.CREATE TABLE
|   4000: 20 27 74 5f 64 61 74 61 27 28 69 64 20 49 4e 54    't_data'(id INT
|   4016: 45 47 45 52 20 50 52 49 4d 41 52 59 20 4b 45 59   EGER PRIMARY KEY
|   4032: 2c 20 62 6c 6f 63 6b 20 42 4c 4f 42 29 31 01 06   , block BLOB)1..
|   4048: 17 0f 0f 08 55 74 61 62 6c 65 74 74 43 52 45 41   ....UtablettCREA
|   4064: 54 45 20 56 49 52 54 55 41 4c 20 54 41 42 4c 45   TE VIRTUAL TABLE
|   4080: 20 74 20 55 53 49 4e 47 20 66 74 73 35 28 78 29    t USING fts5(x)
| page 2 offset 4096
|      0: 0d 00 00 00 04 0f 93 00 0f e8 0f ef 0f a1 0f 93   ................
|   3984: 00 00 00 07 84 80 80 80 80 02 03 00 14 00 00 ff   ................
|   4000: ff 40 84 80 80 80 80 01 04 00 81 04 00 00 00 3b   .@.............;
|   4016: 02 30 61 01 64 02 03 03 03 03 03 03 03 03 03 03   .0a.d...........
|   4032: 03 03 03 03 03 03 03 03 03 03 03 03 03 03 03 03   ................
|   4048: 03 03 03 03 03 03 03 03 03 03 03 03 03 03 03 03   ................
|   4064: 03 03 03 03 03 03 03 04 05 01 03 00 10 02 35 0f   ..............5.
|   4080: 0a 03 00 24 00 00 00 02 01 01 02 00 01 01 01 02   ...$............
| page 3 offset 8192
|      0: 0a 00 00 00 02 0f f2 00 0f fa 0f f2 00 00 00 00   ................
|   4080: 00 00 07 04 09 10 01 30 62 04 05 04 09 0c 01 02   .......0b.......
| page 4 offset 12288
|      0: 0d 00 00 00 02 0f 8d 00 0f 97 0f 8d 00 00 00 00   ................
|   3968: 00 00 00 00 00 00 00 00 00 00 00 00 00 08 02 03   ................
|   3984: 00 17 62 20 62 20 62 67 01 04 00 81 53 61 20 61   ..b b bg....Sa a
|   4000: 20 61 20 61 20 61 20 61 20 61 20 61 20 61 20 61    a a a a a a a a
|   4016: 20 61 20 61 20 61 20 61 20 61 20 61 20 61 20 61    a a a a a a a a
|   4032: 20 61 20 61 20 61 20 61 20 61 20 61 20 61 20 61    a a a a a a a a
|   4048: 20 61 20 61 20 61 20 61 20 61 20 61 20 61 20 61    a a a a a a a a
|   4064: 20 61 20 61 20 61 20 61 20 61 20 61 20 61 20 61    a a a a a a a a
|   4080: 20 61 20 61 20 61 20 61 20 61 20 61 20 61 20 61    a a a a a a a a
| page 5 offset 16384
|      0: 0d 00 00 00 02 0f f4 00 0f fa 0f f4 00 00 00 00   ................
|   4080: 00 00 00 00 04 02 03 00 0e 03 04 01 03 00 0e 32   ...............2
| page 6 offset 20480
|      0: 0a 00 00 00 03 0f da 00 0f eb 0f da 0f f4 00 00   ................
|   4048: 00 00 00 00 00 00 00 00 00 00 10 03 27 09 73 65   ............'.se
|   4064: 63 75 72 65 2d 64 65 6c 65 74 65 08 03 15 01 70   cure-delete....p
|   4080: 67 73 7a 40 0b 03 1b 01 76 65 72 73 69 6f 6e 04   gsz@....version.
| end v2.db
  }]
} {}
do_catchsql_test 3.1 {
  DELETE FROM t WHERE rowid=1;
} {1 {fts5: corruption found reading blob 137438953474 from table "t"}}
do_catchsql_test 3.2 {
  INSERT INTO t(t) VALUES('integrity-check');
} {1 {fts5: corruption found reading blob 137438953474 from table "t"}}

do_test 4.0 {
  sqlite3 db {}
  db deserialize [decode_hexdb {
.open --hexdb
| size 5120 pagesize 512 filename poc.db
| page 1 offset 0
|      0: 53 51 4c 69 74 65 20 66 6f 72 6d 61 74 20 33 00   SQLite format 3.
|     16: 02 00 01 01 00 40 20 20 00 00 00 04 00 00 00 0a   .....@  ........
|     32: 00 00 00 00 00 00 00 00 00 00 00 06 00 00 00 04   ................
|     48: 00 00 00 00 00 00 00 00 00 00 00 01 00 00 00 00   ................
|     80: 00 00 00 00 00 00 00 00 00 00 00 00 00 00 00 04   ................
|     96: 00 2e 99 b0 05 00 00 00 01 01 fb 00 00 00 00 08   ................
|    112: 01 fb 00 a0 00 98 00 00 00 00 00 00 00 00 00 00   ................
|    144: 00 00 00 00 00 00 00 00 06 05 06 00 00 00 00 00   ................
|    160: 52 04 06 17 1f 1f 01 75 74 61 62 6c 65 74 5f 63   R......utablet_c
|    176: 6f 6e 74 65 6e 74 74 5f 63 6f 6e 74 65 6e 74 04   ontentt_content.
|    192: 43 52 45 41 54 45 20 54 41 42 4c 45 20 27 74 5f   CREATE TABLE 't_
|    208: 63 6f 6e 74 65 6e 74 27 28 69 64 20 49 4e 54 45   content'(id INTE
|    224: 47 45 52 20 50 52 49 4d 41 52 59 20 4b 45 59 2c   GER PRIMARY KEY,
|    240: 20 63 30 29 66 03 07 17 17 17 01 81 2b 74 61 62    c0)f.......+tab
|    256: 6c 65 74 5f 69 64 78 74 5f 69 64 78 03 43 52 45   let_idxt_idx.CRE
|    272: 41 54 45 20 54 41 42 4c 45 20 27 74 5f 69 64 78   ATE TABLE 't_idx
|    288: 27 28 73 65 67 69 64 2c 20 74 65 72 6d 2c 20 70   '(segid, term, p
|    304: 67 6e 6f 2c 20 50 52 49 4d 41 52 59 20 4b 45 59   gno, PRIMARY KEY
|    320: 28 73 65 67 69 64 2c 20 74 65 72 6d 29 29 20 57   (segid, term)) W
|    336: 49 54 48 4f 55 54 20 52 4f 57 49 44 51 02 06 17   ITHOUT ROWIDQ...
|    352: 19 19 01 7f 74 61 62 6c 65 74 5f 64 61 74 61 74   ....tablet_datat
|    368: 5f 64 61 74 61 02 43 52 45 41 54 45 20 54 41 42   _data.CREATE TAB
|    384: 4c 45 20 27 74 5f 64 61 74 61 27 28 69 64 20 49   LE 't_data'(id I
|    400: 4e 54 45 47 45 52 20 50 52 49 4d 41 52 59 20 4b   NTEGER PRIMARY K
|    416: 45 59 2c 20 62 6c 6f 63 6b 20 42 4c 4f 42 29 4f   EY, block BLOB)O
|    432: 01 07 17 0f 0f 08 81 0f 74 61 62 6c 65 74 74 43   ........tablettC
|    448: 52 45 41 54 45 20 56 49 52 54 55 41 4c 20 54 41   REATE VIRTUAL TA
|    464: 42 4c 45 20 74 20 55 53 49 4e 47 20 66 74 73 35   BLE t USING fts5
|    480: 28 61 2c 64 65 74 61 69 6c 3d 63 6f 6c 75 6d 6e   (a,detail=column
|    496: 2c 70 72 65 66 69 78 3d 27 32 20 00 00 00 06 03   ,prefix='2 .....
| page 2 offset 512
|      0: 0d 00 00 00 03 00 9e 00 01 e8 01 ef 00 9e 00 00   ................
|    144: 00 00 00 00 00 00 00 00 00 00 00 00 00 00 8a 36   ...............6
|    160: 84 80 80 80 80 01 04 00 94 70 00 00 01 12 06 30   .........p.....0
|    176: 61 6c 70 68 61 01 02 02 01 04 62 65 74 61 01 02   alpha.....beta..
|    192: 02 01 05 64 65 6c 74 61 01 02 02 01 04 65 63 68   ...delta.....ech
|    208: 6f 01 02 02 01 07 66 6f 78 74 72 6f 74 01 02 02   o.....foxtrot...
|    224: 01 05 67 61 6d 6d 61 01 02 02 02 03 6f 6c 66 01   ..gamma.....olf.
|    240: 02 02 01 05 68 6f 74 65 6c 01 02 02 00 03 31 61   ....hotel.....1a
|    256: 6c 01 02 02 01 02 62 65 01 02 02 01 02 64 65 01   l.....be.....de.
|    272: 02 02 01 02 65 63 01 02 02 01 02 66 6f 01 02 02   ....ec.....fo...
|    288: 01 02 67 61 01 02 02 02 01 6f 01 02 02 01 02 68   ..ga.....o.....h
|    304: 6f 01 02 02 00 04 32 61 6c 70 01 02 02 01 03 62   o.....2alp.....b
|    320: 65 74 01 02 02 01 03 64 65 6c 01 02 02 01 03 65   et.....del.....e
|    336: 63 68 01 02 02 01 03 66 6f 78 01 02 02 01 03 67   ch.....fox.....g
|    352: 61 6d 01 02 02 02 02 6f 6c 01 02 02 01 03 68 6f   am.....ol.....ho
|    368: 74 01 02 02 00 05 33 61 6c 70 68 01 02 02 01 04   t.....3alph.....
|    384: 62 65 74 61 01 02 02 01 04 64 65 6c 74 01 02 02   beta.....delt...
|    400: 01 04 65 63 68 6f 01 02 02 01 04 66 6f 78 74 01   ..echo.....foxt.
|    416: 02 02 01 04 67 61 6d 6d 01 02 02 02 03 6f 6c 66   ....gamm.....olf
|    432: 01 02 02 01 04 68 6f 74 65 01 02 02 04 0a 09 0a   .....hote.......
|    448: 09 0c 0a 08 0a 08 07 07 07 07 07 06 07 09 08 08   ................
|    464: 08 08 08 07 08 0a 09 09 09 09 09 08 ff ff ff ff   ................
|    480: ff ff ff ff 00 00 00 09 05 01 03 00 10 01 08 0f   ................
|    496: 0a 03 00 24 00 00 00 01 01 01 01 00 01 01 01 01   ...$............
| page 3 offset 1024
|      0: 0a 00 00 00 01 01 fa 00 01 fa 00 00 00 00 00 00   ................
|    496: 00 00 00 00 00 00 00 00 00 00 05 04 09 0c 01 02   ................
| page 4 offset 1536
|      0: 0d 00 00 00 01 01 cd 00 01 cd 00 00 00 00 00 00   ................
|    448: 00 00 00 00 00 00 00 00 00 00 00 00 00 31 01 03   .............1..
|    464: 00 69 61 6c 70 68 61 20 62 65 74 61 20 67 61 6d   .ialpha beta gam
|    480: 6d 61 20 64 65 6c 74 61 20 65 63 68 6f 20 66 6f   ma delta echo fo
|    496: 78 74 72 6f 74 20 67 6f 6c 66 20 68 6f 74 65 6c   xtrot golf hotel
| page 5 offset 2048
|      0: 0d 00 00 00 01 01 fa 00 01 fa 00 00 00 00 00 00   ................
|    496: 00 00 00 00 00 00 00 00 00 00 04 01 03 00 0e 08   ................
| page 6 offset 2560
|      0: 0d 00 00 00 03 00 f4 00 01 af 01 5c 00 f4 00 a0   ................
|     16: 00 47 00 3f 00 00 00 00 00 00 00 00 00 00 00 00   .G.?............
|     48: 00 00 00 00 06 05 06 00 00 00 00 00 52 04 06 06   ............R...
|     64: 06 06 00 00 00 00 00 57 05 06 17 1f 1f 01 7f 74   .......W.......t
|     80: 61 62 6c 65 74 5f 64 6f 63 73 69 7a 65 74 5f 64   ablet_docsizet_d
|     96: 6f 63 73 69 7a 65 05 43 52 45 41 54 45 20 54 41   ocsize.CREATE TA
|    112: 42 4c 45 20 27 74 5f 64 6f 63 73 69 7a 65 27 28   BLE 't_docsize'(
|    128: 69 64 20 49 4e 54 45 47 45 52 20 50 52 49 4d 41   id INTEGER PRIMA
|    144: 52 59 20 4b 45 59 2c 20 73 7a 20 42 4c 4f 42 29   RY KEY, sz BLOB)
|    160: 52 04 06 17 1f 1f 01 75 74 61 62 6c 65 74 5f 63   R......utablet_c
|    176: 6f 6e 74 65 6e 74 74 5f 63 6f 6e 74 65 6e 74 04   ontentt_content.
|    192: 43 52 45 41 54 45 20 54 41 42 4c 45 20 27 74 5f   CREATE TABLE 't_
|    208: 63 6f 6e 74 65 6e 74 27 28 69 64 20 49 4e 54 45   content'(id INTE
|    224: 47 45 52 20 50 52 49 4d 41 52 59 20 4b 45 59 2c   GER PRIMARY KEY,
|    240: 20 63 30 29 66 03 07 17 17 17 01 81 2b 74 61 62    c0)f.......+tab
|    256: 6c 65 74 5f 69 64 78 74 5f 69 64 78 03 43 52 45   let_idxt_idx.CRE
|    272: 41 54 45 20 54 41 42 4c 45 20 27 74 5f 69 64 78   ATE TABLE 't_idx
|    288: 27 28 73 65 67 69 64 2c 20 74 65 72 6d 2c 20 70   '(segid, term, p
|    304: 67 6e 6f 2c 20 50 52 49 4d 41 52 59 20 4b 45 59   gno, PRIMARY KEY
|    320: 28 73 65 67 69 64 2c 20 74 65 72 6d 29 29 20 57   (segid, term)) W
|    336: 49 54 48 4f 55 54 20 52 4f 57 49 44 51 02 06 17   ITHOUT ROWIDQ...
|    352: 19 19 01 7f 74 61 62 6c 65 74 5f 64 61 74 61 74   ....tablet_datat
|    368: 5f 64 61 74 61 02 43 52 45 41 54 45 20 54 41 42   _data.CREATE TAB
|    384: 4c 45 20 27 74 5f 64 61 74 61 27 28 69 64 20 49   LE 't_data'(id I
|    400: 4e 54 45 47 45 52 20 50 52 49 4d 41 52 59 20 4b   NTEGER PRIMARY K
|    416: 45 59 2c 20 62 6c 6f 63 6b 20 42 4c 4f 42 29 4f   EY, block BLOB)O
|    432: 01 07 17 0f 0f 08 81 0f 74 61 62 6c 65 74 74 43   ........tablettC
|    448: 52 45 41 54 45 20 56 49 52 54 55 41 4c 20 54 41   REATE VIRTUAL TA
|    464: 42 4c 45 20 74 20 55 53 49 4e 47 20 66 74 73 35   BLE t USING fts5
|    480: 28 61 2c 64 65 74 61 69 6c 3d 63 6f 6c 75 6d 6e   (a,detail=column
|    496: 2c 70 72 65 66 69 78 3d 27 32 20 33 20 34 27 29   ,prefix='2 3 4')
| page 7 offset 3072
|      0: 0a 00 00 00 02 01 e3 00 01 e3 01 f4 00 00 00 00   ................
|    480: 00 00 00 10 03 27 09 73 65 63 75 72 65 2d 64 65   .....'.secure-de
|    496: 6c 65 74 65 0b 03 1b 01 76 65 72 73 69 6f 6e 04   lete....version.
| page 8 offset 3584
|      0: 0d 00 00 00 03 00 fe 00 01 ac 01 53 00 fe 00 00   ...........S....
|    240: 00 00 00 00 00 00 00 00 00 00 00 00 00 00 53 06   ..............S.
|    256: 06 17 1d 1d 01 7b 74 61 62 6c 65 74 5f 63 6f 6e   ......tablet_con
|    272: 66 69 67 74 5f 63 6f 6e 66 69 67 07 43 52 45 41   figt_config.CREA
|    288: 54 45 20 54 41 42 4c 45 20 27 74 5f 63 6f 6e 66   TE TABLE 't_conf
|    304: 69 67 27 28 6b 20 50 52 49 4d 41 52 59 20 4b 45   ig'(k PRIMARY KE
|    320: 59 2c 20 76 29 20 57 49 54 48 4f 55 54 20 52 4f   Y, v) WITHOUT RO
|    336: 57 49 44 57 05 06 17 1f 1f 01 7f 74 61 62 6c 65   WIDW.......table
|    352: 74 5f 64 6f 63 73 69 7a 65 74 5f 64 6f 63 73 69   t_docsizet_docsi
|    368: 7a 65 05 43 52 45 41 54 45 20 54 41 42 4c 45 20   ze.CREATE TABLE 
|    384: 27 74 5f 64 6f 63 73 69 7a 65 27 28 69 64 20 49   't_docsize'(id I
|    400: 4e 54 45 47 45 52 20 50 52 49 4d 41 52 59 20 4b   NTEGER PRIMARY K
|    416: 45 59 2c 20 73 7a 20 42 4c 4f 42 29 52 04 06 17   EY, sz BLOB)R...
|    432: 1f 1f 01 75 74 61 62 6c 65 74 5f 63 6f 6e 74 65   ...utablet_conte
|    448: 6e 74 74 5f 63 6f 6e 74 65 6e 74 04 43 52 45 41   ntt_content.CREA
|    464: 54 45 20 54 41 42 4c 45 20 27 74 5f 63 6f 6e 74   TE TABLE 't_cont
|    480: 65 6e 74 27 28 69 64 20 49 4e 54 45 47 45 52 20   ent'(id INTEGER 
|    496: 50 52 49 4d 41 52 59 20 4b 45 59 2c 20 63 30 29   PRIMARY KEY, c0)
| page 9 offset 4096
|      0: 00 00 00 0a 00 ff ff ff ff ff ff ff ff 00 ff ff   ................
|     16: ff ff ff ff ff ff 00 ff ff ff ff ff ff ff ff 00   ................
|     32: ff ff ff ff ff ff ff ff 00 ff ff ff ff ff ff ff   ................
|     48: ff 00 ff ff ff ff ff ff ff ff 00 ff ff ff ff ff   ................
|     64: ff ff ff 00 ff ff ff ff ff ff ff ff 00 ff ff ff   ................
|     80: ff ff ff ff ff 00 ff ff ff ff ff ff ff ff 00 ff   ................
|     96: ff ff ff ff ff ff ff 00 ff ff ff ff ff ff ff ff   ................
|    112: 00 ff ff ff ff ff ff ff ff 00 ff ff ff ff ff ff   ................
|    128: ff ff 00 ff ff ff ff ff ff ff ff 00 ff ff ff ff   ................
|    144: ff ff ff ff 00 ff ff ff ff ff ff ff ff 00 ff ff   ................
|    160: ff ff ff ff ff ff 00 ff ff ff ff ff ff ff ff 00   ................
|    176: ff ff ff ff ff ff ff ff 00 ff ff ff ff ff ff ff   ................
|    192: ff 00 ff ff ff ff ff ff ff ff 00 ff ff ff ff ff   ................
|    208: ff ff ff 00 ff ff ff ff ff ff ff ff 00 ff ff ff   ................
|    224: ff ff ff ff ff 00 ff ff ff ff ff ff ff ff 00 ff   ................
|    240: ff ff ff ff ff ff ff 00 ff ff ff ff ff ff ff ff   ................
|    256: 00 ff ff ff ff ff ff ff ff 00 ff ff ff ff ff ff   ................
|    272: ff ff 00 ff ff ff ff ff ff ff ff 00 ff ff ff ff   ................
|    288: ff ff ff ff 00 ff ff ff ff ff ff ff ff 00 ff ff   ................
|    304: ff ff ff ff ff ff 00 ff ff ff ff ff ff ff ff 00   ................
|    320: ff ff ff ff ff ff ff ff 00 ff ff ff ff ff ff ff   ................
|    336: ff 00 ff ff ff ff ff ff ff ff 00 ff ff ff ff ff   ................
|    352: ff ff ff 00 ff ff ff ff ff ff ff ff 00 ff ff ff   ................
|    368: ff ff ff ff ff 00 ff ff ff ff ff ff ff ff 00 ff   ................
|    384: ff ff ff ff ff ff ff 00 ff ff ff ff ff ff ff ff   ................
|    400: 00 ff ff ff ff ff ff ff ff 00 ff ff ff ff ff ff   ................
|    416: ff ff 00 ff ff ff ff ff ff ff ff 00 ff ff ff ff   ................
|    432: ff ff ff ff 00 ff ff ff ff ff ff ff ff 00 ff ff   ................
|    448: ff ff ff ff ff ff 00 ff ff ff ff ff ff ff ff 00   ................
|    464: ff ff ff ff ff ff ff ff 00 ff ff ff ff ff ff ff   ................
|    480: ff 00 ff ff ff ff ff ff ff ff 00 ff ff ff ff ff   ................
|    496: ff ff ff 00 ff ff ff ff ff ff ff ff 00 ff ff ff   ................
| page 10 offset 4608
|      0: 00 00 00 00 ff ff ff ff ff 00 ff ff ff ff ff ff   ................
|     16: ff ff 00 ff ff ff ff ff ff ff ff 00 ff ff ff ff   ................
|     32: ff ff ff ff 00 ff ff ff ff ff ff ff ff 00 ff ff   ................
|     48: ff ff ff ff ff ff 00 ff ff ff ff ff ff ff ff 00   ................
|     64: ff ff ff ff ff ff ff ff 00 ff ff ff ff ff ff ff   ................
|     80: ff 00 ff ff ff ff ff ff ff ff 00 ff ff ff ff ff   ................
|     96: ff ff ff 00 ff ff ff ff ff ff ff ff 00 ff ff ff   ................
|    112: ff ff ff ff ff 00 ff ff ff ff ff ff ff ff 00 ff   ................
|    128: ff ff ff ff ff ff ff 00 ff ff ff ff ff ff ff ff   ................
|    144: 00 ff ff ff ff ff ff ff ff 00 ff ff ff ff ff ff   ................
|    160: ff ff 00 ff ff ff ff ff ff ff ff 00 ff ff ff ff   ................
|    176: ff ff ff ff 00 ff ff ff ff ff ff ff ff 00 ff ff   ................
|    192: ff ff ff ff ff ff 00 ff ff ff ff ff ff ff ff 00   ................
|    208: ff ff ff ff ff ff ff ff 00 ff ff ff ff ff ff ff   ................
|    224: ff 00 ff ff ff ff ff ff ff ff 00 ff ff ff ff ff   ................
|    240: ff ff ff 00 ff ff ff ff ff ff ff ff 00 ff ff ff   ................
|    256: ff ff ff ff ff 00 ff ff ff ff ff ff ff ff 00 ff   ................
|    272: ff ff ff ff ff ff ff 00 ff ff ff ff ff ff ff ff   ................
|    288: 00 ff ff ff ff ff ff ff ff 00 ff ff ff ff ff ff   ................
|    304: ff ff 00 ff ff ff ff ff ff ff ff 00 ff ff ff ff   ................
|    320: ff ff ff ff 00 ff ff ff ff ff ff ff ff 00 ff ff   ................
|    336: ff ff ff ff ff ff 00 ff ff ff ff ff ff ff ff 00   ................
|    352: ff ff ff ff ff ff ff ff 00 ff ff ff ff ff ff ff   ................
|    368: ff 00 ff ff ff ff ff ff ff ff 00 ff ff ff ff ff   ................
|    384: ff ff ff 00 ff ff ff ff ff ff ff ff 00 ff ff ff   ................
|    400: ff ff ff ff ff 00 ff ff ff ff ff ff ff ff 00 ff   ................
|    416: ff ff ff ff ff ff ff 00 ff ff ff ff ff ff ff ff   ................
|    432: 00 ff ff ff ff ff ff ff ff 00 ff ff ff ff ff ff   ................
|    448: ff ff 00 ff ff ff ff ff ff ff ff 00 ff ff ff ff   ................
|    464: ff ff ff ff 00 ff ff ff ff ff ff ff ff 00 ff ff   ................
|    480: ff ff ff ff ff ff 00 ff ff ff ff ff ff ff ff 00   ................
|    496: ff ff ff ff ff ff ff ff 00 ff ff ff ff ff ff ff   ................
| end poc.db
  }]
} {}

do_catchsql_test 4.1 {
  DELETE FROM t WHERE rowid = 1;
} {1 {fts5: corruption in table "t"}}

#-------------------------------------------------------------------------
reset_db
do_execsql_test 5.0 {
  CREATE VIRTUAL TABLE x1 USING fts5(c);
  INSERT INTO x1 VALUES('yellow brick road');
  INSERT INTO x1 VALUES('one two three');
  INSERT INTO x1 VALUES('not at this hour');
}

db close
sqlite3 db test.db

do_execsql_test 5.1 {
  SELECT quote(block) FROM x1_data WHERE id=10
} {
  X'000000000103030003010101020101030101'
}

do_execsql_test 5.2 {
  SELECT rowid FROM x1('two');
} {2}

do_execsql_test 5.3 {
  UPDATE x1_data SET block = X'000000000103030003010187FFFFFF7F020101030101'
}

db close
sqlite3 db test.db

do_catchsql_test 5.4 {
  SELECT rowid FROM x1('two');
} {1 {fts5: corrupt structure record for table "x1"}}


sqlite3_fts5_may_be_corrupt 0
finish_test
